
unspb_elf:     file format elf32-littlearm

Disassembly of section .boot_data:

33e00000 <temp_val>:
33e00000:	00002000 	.word	0x00002000
Disassembly of section .text:

33e00010 <_start>:
33e00010:	e3a0320d 	mov	r3, #-805306368	; 0xd0000000
33e00014:	e2833a36 	add	r3, r3, #221184	; 0x36000
33e00018:	e92d4010 	push	{r4, lr}
33e0001c:	e1a0d003 	mov	sp, r3
33e00020:	eb000014 	bl	33e00078 <disable_watch_dog>
33e00024:	eb000018 	bl	33e0008c <init_system_clock>
33e00028:	eb00012a 	bl	33e004d8 <inituart>
33e0002c:	eb000049 	bl	33e00158 <mem_setup>
33e00030:	e59fd014 	ldr	sp, [pc, #20]	; 33e0004c <_start+0x3c>
33e00034:	e24dd6c2 	sub	sp, sp, #203423744	; 0xc200000
33e00038:	eb00013c 	bl	33e00530 <nand_init>
33e0003c:	eb0006b0 	bl	33e01b04 <copy_uboot_to_ram>
33e00040:	e59ff008 	ldr	pc, [pc, #8]	; 33e00050 <_start+0x40>
33e00044:	e8bd4010 	pop	{r4, lr}
33e00048:	e12fff1e 	bx	lr
33e0004c:	3ffffff4 	.word	0x3ffffff4
33e00050:	33e006d8 	.word	0x33e006d8

33e00054 <led_test>:
33e00054:	e3a0120e 	mov	r1, #-536870912	; 0xe0000000
33e00058:	e3a03c11 	mov	r3, #4352	; 0x1100
33e0005c:	e2811602 	add	r1, r1, #2097152	; 0x200000
33e00060:	e2833011 	add	r3, r3, #17	; 0x11
33e00064:	e3a02c55 	mov	r2, #21760	; 0x5500
33e00068:	e5813c00 	str	r3, [r1, #3072]
33e0006c:	e5812c08 	str	r2, [r1, #3080]
33e00070:	e5810c04 	str	r0, [r1, #3076]
33e00074:	e12fff1e 	bx	lr

33e00078 <disable_watch_dog>:
33e00078:	e3a034e2 	mov	r3, #-503316480	; 0xe2000000
33e0007c:	e3a02000 	mov	r2, #0	; 0x0
33e00080:	e2833607 	add	r3, r3, #7340032	; 0x700000
33e00084:	e5832000 	str	r2, [r3]
33e00088:	e12fff1e 	bx	lr

33e0008c <init_system_clock>:
33e0008c:	e92d0070 	push	{r4, r5, r6}
33e00090:	e3a0320e 	mov	r3, #-536870912	; 0xe0000000
33e00094:	e3a06106 	mov	r6, #-2147483647	; 0x80000001
33e00098:	e3a02fb3 	mov	r2, #716	; 0x2cc
33e0009c:	e2833601 	add	r3, r3, #1048576	; 0x100000
33e000a0:	e1a04006 	mov	r4, r6
33e000a4:	e2822003 	add	r2, r2, #3	; 0x3
33e000a8:	e3a01000 	mov	r1, #0	; 0x0
33e000ac:	e3a0510e 	mov	r5, #-2147483645	; 0x80000003
33e000b0:	e5831200 	str	r1, [r3, #512]
33e000b4:	e286687d 	add	r6, r6, #8192000	; 0x7d0000
33e000b8:	e28447a6 	add	r4, r4, #43515904	; 0x2980000
33e000bc:	e285571b 	add	r5, r5, #7077888	; 0x6c0000
33e000c0:	e5832000 	str	r2, [r3]
33e000c4:	e1a00003 	mov	r0, r3
33e000c8:	e2866c03 	add	r6, r6, #768	; 0x300
33e000cc:	e2844bc3 	add	r4, r4, #199680	; 0x30c00
33e000d0:	e2855c06 	add	r5, r5, #1536	; 0x600
33e000d4:	e5801100 	str	r1, [r0, #256]
33e000d8:	e5801108 	str	r1, [r0, #264]
33e000dc:	e5801108 	str	r1, [r0, #264]
33e000e0:	e5902300 	ldr	r2, [r0, #768]
33e000e4:	e2022102 	and	r2, r2, #-2147483648	; 0x80000000
33e000e8:	e5802300 	str	r2, [r0, #768]
33e000ec:	e5903300 	ldr	r3, [r0, #768]
33e000f0:	e3833305 	orr	r3, r3, #335544320	; 0x14000000
33e000f4:	e3833813 	orr	r3, r3, #1245184	; 0x130000
33e000f8:	e3833d51 	orr	r3, r3, #5184	; 0x1440
33e000fc:	e5803300 	str	r3, [r0, #768]
33e00100:	e5806100 	str	r6, [r0, #256]
33e00104:	e5804108 	str	r4, [r0, #264]
33e00108:	e5805120 	str	r5, [r0, #288]
33e0010c:	e5801104 	str	r1, [r0, #260]
33e00110:	e5903108 	ldr	r3, [r0, #264]
33e00114:	e3833202 	orr	r3, r3, #536870912	; 0x20000000
33e00118:	e5803108 	str	r3, [r0, #264]
33e0011c:	e5902108 	ldr	r2, [r0, #264]
33e00120:	e3a0c20e 	mov	ip, #-536870912	; 0xe0000000
33e00124:	e3120202 	tst	r2, #536870912	; 0x20000000
33e00128:	e28cc601 	add	ip, ip, #1048576	; 0x100000
33e0012c:	0affffe8 	beq	33e000d4 <init_system_clock+0x48>
33e00130:	e59c2108 	ldr	r2, [ip, #264]
33e00134:	e3c22202 	bic	r2, r2, #536870912	; 0x20000000
33e00138:	e58c2108 	str	r2, [ip, #264]
33e0013c:	e59c3200 	ldr	r3, [ip, #512]
33e00140:	e3833201 	orr	r3, r3, #268435456	; 0x10000000
33e00144:	e3833c11 	orr	r3, r3, #4352	; 0x1100
33e00148:	e3833011 	orr	r3, r3, #17	; 0x11
33e0014c:	e58c3200 	str	r3, [ip, #512]
33e00150:	e8bd0070 	pop	{r4, r5, r6}
33e00154:	e12fff1e 	bx	lr

33e00158 <mem_setup>:
33e00158:	e3a0220e 	mov	r2, #-536870912	; 0xe0000000
33e0015c:	e3a03caa 	mov	r3, #43520	; 0xaa00
33e00160:	e3a00daa 	mov	r0, #10880	; 0x2a80
33e00164:	e2822602 	add	r2, r2, #2097152	; 0x200000
33e00168:	e28330aa 	add	r3, r3, #170	; 0xaa
33e0016c:	e280002a 	add	r0, r0, #42	; 0x2a
33e00170:	e58233cc 	str	r3, [r2, #972]
33e00174:	e58233ec 	str	r3, [r2, #1004]
33e00178:	e582340c 	str	r3, [r2, #1036]
33e0017c:	e582342c 	str	r3, [r2, #1068]
33e00180:	e582344c 	str	r3, [r2, #1100]
33e00184:	e582346c 	str	r3, [r2, #1132]
33e00188:	e582348c 	str	r3, [r2, #1164]
33e0018c:	e58234ac 	str	r3, [r2, #1196]
33e00190:	e58204cc 	str	r0, [r2, #1228]
33e00194:	e58234ec 	str	r3, [r2, #1260]
33e00198:	e582350c 	str	r3, [r2, #1292]
33e0019c:	e582352c 	str	r3, [r2, #1324]
33e001a0:	e582354c 	str	r3, [r2, #1356]
33e001a4:	e582356c 	str	r3, [r2, #1388]
33e001a8:	e582358c 	str	r3, [r2, #1420]
33e001ac:	e58235ac 	str	r3, [r2, #1452]
33e001b0:	e58235cc 	str	r3, [r2, #1484]
33e001b4:	e58205ec 	str	r0, [r2, #1516]
33e001b8:	e282257f 	add	r2, r2, #532676608	; 0x1fc00000
33e001bc:	e2822603 	add	r2, r2, #3145728	; 0x300000
33e001c0:	e3a0120f 	mov	r1, #-268435456	; 0xf0000000
33e001c4:	e92d0ff0 	push	{r4, r5, r6, r7, r8, r9, sl, fp}
33e001c8:	e2822a01 	add	r2, r2, #4096	; 0x1000
33e001cc:	e3a05601 	mov	r5, #1048576	; 0x100000
33e001d0:	e3a03086 	mov	r3, #134	; 0x86
33e001d4:	e5812018 	str	r2, [r1, #24]
33e001d8:	e581301c 	str	r3, [r1, #28]
33e001dc:	e2853a01 	add	r3, r5, #4096	; 0x1000
33e001e0:	e2822002 	add	r2, r2, #2	; 0x2
33e001e4:	e2833003 	add	r3, r3, #3	; 0x3
33e001e8:	e5812018 	str	r2, [r1, #24]
33e001ec:	e5813018 	str	r3, [r1, #24]
33e001f0:	e3a02601 	mov	r2, #1048576	; 0x100000
33e001f4:	e5913040 	ldr	r3, [r1, #64]
33e001f8:	e2822a01 	add	r2, r2, #4096	; 0x1000
33e001fc:	e2822003 	add	r2, r2, #3	; 0x3
33e00200:	e2033dff 	and	r3, r3, #16320	; 0x3fc0
33e00204:	e1823903 	orr	r3, r2, r3, lsl #18
33e00208:	e3a0c6ff 	mov	ip, #267386880	; 0xff00000
33e0020c:	e5813018 	str	r3, [r1, #24]
33e00210:	e59f22b4 	ldr	r2, [pc, #692]	; 33e004cc <mem_setup+0x374>
33e00214:	e28ccaf2 	add	ip, ip, #991232	; 0xf2000
33e00218:	e3a06c13 	mov	r6, #4864	; 0x1300
33e0021c:	e3a03821 	mov	r3, #2162688	; 0x210000
33e00220:	e28cc010 	add	ip, ip, #16	; 0x10
33e00224:	e2833b09 	add	r3, r3, #9216	; 0x2400
33e00228:	e286614d 	add	r6, r6, #1073741843	; 0x40000013
33e0022c:	e581c000 	str	ip, [r1]
33e00230:	e286660f 	add	r6, r6, #15728640	; 0xf00000
33e00234:	e5813004 	str	r3, [r1, #4]
33e00238:	e3a07423 	mov	r7, #587202560	; 0x23000000
33e0023c:	e5812008 	str	r2, [r1, #8]
33e00240:	e3a034ff 	mov	r3, #-16777216	; 0xff000000
33e00244:	e3a08e23 	mov	r8, #560	; 0x230
33e00248:	e3a02e61 	mov	r2, #1552	; 0x610
33e0024c:	e581600c 	str	r6, [r1, #12]
33e00250:	e2822008 	add	r2, r2, #8	; 0x8
33e00254:	e5813014 	str	r3, [r1, #20]
33e00258:	e2877709 	add	r7, r7, #2359296	; 0x240000
33e0025c:	e59f326c 	ldr	r3, [pc, #620]	; 33e004d0 <mem_setup+0x378>
33e00260:	e2888382 	add	r8, r8, #134217730	; 0x8000002
33e00264:	e5812030 	str	r2, [r1, #48]
33e00268:	e2877fc1 	add	r7, r7, #772	; 0x304
33e0026c:	e2888772 	add	r8, r8, #29884416	; 0x1c80000
33e00270:	e3a02407 	mov	r2, #117440512	; 0x7000000
33e00274:	e3a0a401 	mov	sl, #16777216	; 0x1000000
33e00278:	e5813034 	str	r3, [r1, #52]
33e0027c:	e3a03802 	mov	r3, #131072	; 0x20000
33e00280:	e5817038 	str	r7, [r1, #56]
33e00284:	e581803c 	str	r8, [r1, #60]
33e00288:	e5812010 	str	r2, [r1, #16]
33e0028c:	e3a02803 	mov	r2, #196608	; 0x30000
33e00290:	e581a010 	str	sl, [r1, #16]
33e00294:	e5813010 	str	r3, [r1, #16]
33e00298:	e5812010 	str	r2, [r1, #16]
33e0029c:	e3a03d15 	mov	r3, #1344	; 0x540
33e002a0:	e3a02d11 	mov	r2, #1088	; 0x440
33e002a4:	e3a0bb41 	mov	fp, #66560	; 0x10400
33e002a8:	e3a09405 	mov	r9, #83886080	; 0x5000000
33e002ac:	e2833002 	add	r3, r3, #2	; 0x2
33e002b0:	e2822002 	add	r2, r2, #2	; 0x2
33e002b4:	e581b010 	str	fp, [r1, #16]
33e002b8:	e5813010 	str	r3, [r1, #16]
33e002bc:	e581a010 	str	sl, [r1, #16]
33e002c0:	e28b3d0e 	add	r3, fp, #896	; 0x380
33e002c4:	e5819010 	str	r9, [r1, #16]
33e002c8:	e5819010 	str	r9, [r1, #16]
33e002cc:	e5812010 	str	r2, [r1, #16]
33e002d0:	e3a02671 	mov	r2, #118489088	; 0x7100000
33e002d4:	e5813010 	str	r3, [r1, #16]
33e002d8:	e3a04811 	mov	r4, #1114112	; 0x110000
33e002dc:	e581b010 	str	fp, [r1, #16]
33e002e0:	e3a03611 	mov	r3, #17825792	; 0x1100000
33e002e4:	e5812010 	str	r2, [r1, #16]
33e002e8:	e2855d15 	add	r5, r5, #1344	; 0x540
33e002ec:	e3a02812 	mov	r2, #1179648	; 0x120000
33e002f0:	e5813010 	str	r3, [r1, #16]
33e002f4:	e2844b01 	add	r4, r4, #1024	; 0x400
33e002f8:	e5812010 	str	r2, [r1, #16]
33e002fc:	e2855002 	add	r5, r5, #2	; 0x2
33e00300:	e24338fd 	sub	r3, r3, #16580608	; 0xfd0000
33e00304:	e28228fe 	add	r2, r2, #16646144	; 0xfe0000
33e00308:	e5813010 	str	r3, [r1, #16]
33e0030c:	e5814010 	str	r4, [r1, #16]
33e00310:	e5815010 	str	r5, [r1, #16]
33e00314:	e5812010 	str	r2, [r1, #16]
33e00318:	e28224ff 	add	r2, r2, #-16777216	; 0xff000000
33e0031c:	e2822d11 	add	r2, r2, #1088	; 0x440
33e00320:	e3a03651 	mov	r3, #84934656	; 0x5100000
33e00324:	e2822002 	add	r2, r2, #2	; 0x2
33e00328:	e5813010 	str	r3, [r1, #16]
33e0032c:	e5813010 	str	r3, [r1, #16]
33e00330:	e5812010 	str	r2, [r1, #16]
33e00334:	e3a026ff 	mov	r2, #267386880	; 0xff00000
33e00338:	e3a03811 	mov	r3, #1114112	; 0x110000
33e0033c:	e2822a02 	add	r2, r2, #8192	; 0x2000
33e00340:	e2833d1e 	add	r3, r3, #1920	; 0x780
33e00344:	e2822030 	add	r2, r2, #48	; 0x30
33e00348:	e5813010 	str	r3, [r1, #16]
33e0034c:	e5814010 	str	r4, [r1, #16]
33e00350:	e3e03cff 	mvn	r3, #65280	; 0xff00
33e00354:	e5812000 	str	r2, [r1]
33e00358:	e3a02602 	mov	r2, #2097152	; 0x200000
33e0035c:	e5813028 	str	r3, [r1, #40]
33e00360:	e2822b09 	add	r2, r2, #9216	; 0x2400
33e00364:	e3a0048a 	mov	r0, #-1979711488	; 0x8a000000
33e00368:	e3a03601 	mov	r3, #1048576	; 0x100000
33e0036c:	e1a001c0 	asr	r0, r0, #3
33e00370:	e5812004 	str	r2, [r1, #4]
33e00374:	e2833a01 	add	r3, r3, #4096	; 0x1000
33e00378:	e3a02086 	mov	r2, #134	; 0x86
33e0037c:	e5803018 	str	r3, [r0, #24]
33e00380:	e580201c 	str	r2, [r0, #28]
33e00384:	e2433a01 	sub	r3, r3, #4096	; 0x1000
33e00388:	e3a02601 	mov	r2, #1048576	; 0x100000
33e0038c:	e2833a01 	add	r3, r3, #4096	; 0x1000
33e00390:	e2822a01 	add	r2, r2, #4096	; 0x1000
33e00394:	e2822003 	add	r2, r2, #3	; 0x3
33e00398:	e2833002 	add	r3, r3, #2	; 0x2
33e0039c:	e5803018 	str	r3, [r0, #24]
33e003a0:	e5802018 	str	r2, [r0, #24]
33e003a4:	e5903040 	ldr	r3, [r0, #64]
33e003a8:	e2033dff 	and	r3, r3, #16320	; 0x3fc0
33e003ac:	e1823903 	orr	r3, r2, r3, lsl #18
33e003b0:	e5803018 	str	r3, [r0, #24]
33e003b4:	e3a03602 	mov	r3, #2097152	; 0x200000
33e003b8:	e2833b09 	add	r3, r3, #9216	; 0x2400
33e003bc:	e580c000 	str	ip, [r0]
33e003c0:	e5803004 	str	r3, [r0, #4]
33e003c4:	e59f3108 	ldr	r3, [pc, #264]	; 33e004d4 <mem_setup+0x37c>
33e003c8:	e5806008 	str	r6, [r0, #8]
33e003cc:	e3a024ff 	mov	r2, #-16777216	; 0xff000000
33e003d0:	e580300c 	str	r3, [r0, #12]
33e003d4:	e3a03e61 	mov	r3, #1552	; 0x610
33e003d8:	e5802014 	str	r2, [r0, #20]
33e003dc:	e2833008 	add	r3, r3, #8	; 0x8
33e003e0:	e59f20e8 	ldr	r2, [pc, #232]	; 33e004d0 <mem_setup+0x378>
33e003e4:	e5803030 	str	r3, [r0, #48]
33e003e8:	e3a03407 	mov	r3, #117440512	; 0x7000000
33e003ec:	e5802034 	str	r2, [r0, #52]
33e003f0:	e5807038 	str	r7, [r0, #56]
33e003f4:	e3a02802 	mov	r2, #131072	; 0x20000
33e003f8:	e580803c 	str	r8, [r0, #60]
33e003fc:	e5803010 	str	r3, [r0, #16]
33e00400:	e3a03803 	mov	r3, #196608	; 0x30000
33e00404:	e580a010 	str	sl, [r0, #16]
33e00408:	e5802010 	str	r2, [r0, #16]
33e0040c:	e5803010 	str	r3, [r0, #16]
33e00410:	e3a02d15 	mov	r2, #1344	; 0x540
33e00414:	e3a03d11 	mov	r3, #1088	; 0x440
33e00418:	e2822002 	add	r2, r2, #2	; 0x2
33e0041c:	e2833002 	add	r3, r3, #2	; 0x2
33e00420:	e580b010 	str	fp, [r0, #16]
33e00424:	e5802010 	str	r2, [r0, #16]
33e00428:	e580a010 	str	sl, [r0, #16]
33e0042c:	e28b2d0e 	add	r2, fp, #896	; 0x380
33e00430:	e5809010 	str	r9, [r0, #16]
33e00434:	e5809010 	str	r9, [r0, #16]
33e00438:	e5803010 	str	r3, [r0, #16]
33e0043c:	e3a03671 	mov	r3, #118489088	; 0x7100000
33e00440:	e5802010 	str	r2, [r0, #16]
33e00444:	e580b010 	str	fp, [r0, #16]
33e00448:	e3a02611 	mov	r2, #17825792	; 0x1100000
33e0044c:	e5803010 	str	r3, [r0, #16]
33e00450:	e3a03812 	mov	r3, #1179648	; 0x120000
33e00454:	e5802010 	str	r2, [r0, #16]
33e00458:	e5803010 	str	r3, [r0, #16]
33e0045c:	e24228fd 	sub	r2, r2, #16580608	; 0xfd0000
33e00460:	e28338fe 	add	r3, r3, #16646144	; 0xfe0000
33e00464:	e5802010 	str	r2, [r0, #16]
33e00468:	e5804010 	str	r4, [r0, #16]
33e0046c:	e5805010 	str	r5, [r0, #16]
33e00470:	e5803010 	str	r3, [r0, #16]
33e00474:	e28334ff 	add	r3, r3, #-16777216	; 0xff000000
33e00478:	e2833d11 	add	r3, r3, #1088	; 0x440
33e0047c:	e3a02651 	mov	r2, #84934656	; 0x5100000
33e00480:	e2833002 	add	r3, r3, #2	; 0x2
33e00484:	e5802010 	str	r2, [r0, #16]
33e00488:	e5802010 	str	r2, [r0, #16]
33e0048c:	e5803010 	str	r3, [r0, #16]
33e00490:	e3a036ff 	mov	r3, #267386880	; 0xff00000
33e00494:	e3a02811 	mov	r2, #1114112	; 0x110000
33e00498:	e2833a02 	add	r3, r3, #8192	; 0x2000
33e0049c:	e2822d1e 	add	r2, r2, #1920	; 0x780
33e004a0:	e2833030 	add	r3, r3, #48	; 0x30
33e004a4:	e5802010 	str	r2, [r0, #16]
33e004a8:	e5804010 	str	r4, [r0, #16]
33e004ac:	e5803000 	str	r3, [r0]
33e004b0:	e3a03602 	mov	r3, #2097152	; 0x200000
33e004b4:	e3e02cff 	mvn	r2, #65280	; 0xff00
33e004b8:	e2833b09 	add	r3, r3, #9216	; 0x2400
33e004bc:	e5802028 	str	r2, [r0, #40]
33e004c0:	e5803004 	str	r3, [r0, #4]
33e004c4:	e8bd0ff0 	pop	{r4, r5, r6, r7, r8, r9, sl, fp}
33e004c8:	e12fff1e 	bx	lr
33e004cc:	30f01313 	.word	0x30f01313
33e004d0:	28233287 	.word	0x28233287
33e004d4:	50f01313 	.word	0x50f01313

33e004d8 <inituart>:
33e004d8:	e3a02c22 	mov	r2, #8704	; 0x2200
33e004dc:	e3a0320e 	mov	r3, #-536870912	; 0xe0000000
33e004e0:	e2822022 	add	r2, r2, #34	; 0x22
33e004e4:	e2833602 	add	r3, r3, #2097152	; 0x200000
33e004e8:	e3a004e2 	mov	r0, #-503316480	; 0xe2000000
33e004ec:	e5832000 	str	r2, [r3]
33e004f0:	e2800609 	add	r0, r0, #9437184	; 0x900000
33e004f4:	e3a01000 	mov	r1, #0	; 0x0
33e004f8:	e3a03003 	mov	r3, #3	; 0x3
33e004fc:	e5801008 	str	r1, [r0, #8]
33e00500:	e3a02005 	mov	r2, #5	; 0x5
33e00504:	e580100c 	str	r1, [r0, #12]
33e00508:	e5803000 	str	r3, [r0]
33e0050c:	e3a03cde 	mov	r3, #56832	; 0xde00
33e00510:	e5802004 	str	r2, [r0, #4]
33e00514:	e2811022 	add	r1, r1, #34	; 0x22
33e00518:	e2433023 	sub	r3, r3, #35	; 0x23
33e0051c:	e282203c 	add	r2, r2, #60	; 0x3c
33e00520:	e5801028 	str	r1, [r0, #40]
33e00524:	e580302c 	str	r3, [r0, #44]
33e00528:	e5c02020 	strb	r2, [r0, #32]
33e0052c:	e12fff1e 	bx	lr

33e00530 <nand_init>:
33e00530:	e3a0120e 	mov	r1, #-536870912	; 0xe0000000
33e00534:	e2811602 	add	r1, r1, #2097152	; 0x200000
33e00538:	e59132e0 	ldr	r3, [r1, #736]
33e0053c:	e3c33c0f 	bic	r3, r3, #3840	; 0xf00
33e00540:	e58132e0 	str	r3, [r1, #736]
33e00544:	e59122e0 	ldr	r2, [r1, #736]
33e00548:	e3822c03 	orr	r2, r2, #768	; 0x300
33e0054c:	e58122e0 	str	r2, [r1, #736]
33e00550:	e59132e8 	ldr	r3, [r1, #744]
33e00554:	e3c33030 	bic	r3, r3, #48	; 0x30
33e00558:	e58132e8 	str	r3, [r1, #744]
33e0055c:	e3a02c22 	mov	r2, #8704	; 0x2200
33e00560:	e5913320 	ldr	r3, [r1, #800]
33e00564:	e2822022 	add	r2, r2, #34	; 0x22
33e00568:	e20334ff 	and	r3, r3, #-16777216	; 0xff000000
33e0056c:	e1822802 	orr	r2, r2, r2, lsl #16
33e00570:	e5813320 	str	r3, [r1, #800]
33e00574:	e5812320 	str	r2, [r1, #800]
33e00578:	e5913328 	ldr	r3, [r1, #808]
33e0057c:	e3a02102 	mov	r2, #-2147483648	; 0x80000000
33e00580:	e00338c2 	and	r3, r3, r2, asr #17
33e00584:	e5813328 	str	r3, [r1, #808]
33e00588:	e3a0020b 	mov	r0, #-1342177280	; 0xb0000000
33e0058c:	e280060e 	add	r0, r0, #14680064	; 0xe00000
33e00590:	e5903000 	ldr	r3, [r0]
33e00594:	e3c33c77 	bic	r3, r3, #30464	; 0x7700
33e00598:	e3c3307f 	bic	r3, r3, #127	; 0x7f
33e0059c:	e5803000 	str	r3, [r0]
33e005a0:	e3a03c77 	mov	r3, #30464	; 0x7700
33e005a4:	e5902000 	ldr	r2, [r0]
33e005a8:	e2833076 	add	r3, r3, #118	; 0x76
33e005ac:	e1822003 	orr	r2, r2, r3
33e005b0:	e5802000 	str	r2, [r0]
33e005b4:	e5903004 	ldr	r3, [r0, #4]
33e005b8:	e3c33807 	bic	r3, r3, #458752	; 0x70000
33e005bc:	e3c33d1f 	bic	r3, r3, #1984	; 0x7c0
33e005c0:	e3c33007 	bic	r3, r3, #7	; 0x7
33e005c4:	e5803004 	str	r3, [r0, #4]
33e005c8:	e5902004 	ldr	r2, [r0, #4]
33e005cc:	e3822007 	orr	r2, r2, #7	; 0x7
33e005d0:	e5802004 	str	r2, [r0, #4]
33e005d4:	e12fff1e 	bx	lr

33e005d8 <param_set>:
33e005d8:	e3a03355 	mov	r3, #1409286145	; 0x54000001
33e005dc:	e92d41f0 	push	{r4, r5, r6, r7, r8, lr}
33e005e0:	e2833841 	add	r3, r3, #4259840	; 0x410000
33e005e4:	e1a04000 	mov	r4, r0
33e005e8:	e5843004 	str	r3, [r4, #4]
33e005ec:	e3a03015 	mov	r3, #21	; 0x15
33e005f0:	e3a05000 	mov	r5, #0	; 0x0
33e005f4:	e2800014 	add	r0, r0, #20	; 0x14
33e005f8:	e3a0e201 	mov	lr, #268435456	; 0x10000000
33e005fc:	e5843034 	str	r3, [r4, #52]
33e00600:	e3a03203 	mov	r3, #805306368	; 0x30000000
33e00604:	e5845008 	str	r5, [r4, #8]
33e00608:	e584500c 	str	r5, [r4, #12]
33e0060c:	e5845010 	str	r5, [r4, #16]
33e00610:	e284c024 	add	ip, r4, #36	; 0x24
33e00614:	e580300c 	str	r3, [r0, #12]
33e00618:	e083300e 	add	r3, r3, lr
33e0061c:	e58c300c 	str	r3, [ip, #12]
33e00620:	e2833305 	add	r3, r3, #335544320	; 0x14000000
33e00624:	e3a01395 	mov	r1, #1409286146	; 0x54000002
33e00628:	e2833841 	add	r3, r3, #4259840	; 0x410000
33e0062c:	e2811841 	add	r1, r1, #4259840	; 0x410000
33e00630:	e2846034 	add	r6, r4, #52	; 0x34
33e00634:	e2833009 	add	r3, r3, #9	; 0x9
33e00638:	e3a07004 	mov	r7, #4	; 0x4
33e0063c:	e3a02005 	mov	r2, #5	; 0x5
33e00640:	e9804002 	stmib	r0, {r1, lr}
33e00644:	e58c1004 	str	r1, [ip, #4]
33e00648:	e5842000 	str	r2, [r4]
33e0064c:	e5863004 	str	r3, [r6, #4]
33e00650:	e2822046 	add	r2, r2, #70	; 0x46
33e00654:	e5847024 	str	r7, [r4, #36]
33e00658:	e58ce008 	str	lr, [ip, #8]
33e0065c:	e5847014 	str	r7, [r4, #20]
33e00660:	e284003c 	add	r0, r4, #60	; 0x3c
33e00664:	e59f101c 	ldr	r1, [pc, #28]	; 33e00688 <param_set+0xb0>
33e00668:	eb00064c 	bl	33e01fa0 <memcpy>
33e0066c:	e5942034 	ldr	r2, [r4, #52]
33e00670:	e1a03102 	lsl	r3, r2, #2
33e00674:	e0863003 	add	r3, r6, r3
33e00678:	e7865102 	str	r5, [r6, r2, lsl #2]
33e0067c:	e5835004 	str	r5, [r3, #4]
33e00680:	e8bd41f0 	pop	{r4, r5, r6, r7, r8, lr}
33e00684:	e12fff1e 	bx	lr
33e00688:	33e02468 	.word	0x33e02468

33e0068c <my_boot>:
33e0068c:	e92d4070 	push	{r4, r5, r6, lr}
33e00690:	e3a04203 	mov	r4, #805306368	; 0x30000000
33e00694:	e2845c01 	add	r5, r4, #256	; 0x100
33e00698:	e1a00005 	mov	r0, r5
33e0069c:	ebffffcd 	bl	33e005d8 <param_set>
33e006a0:	e3a0101d 	mov	r1, #29	; 0x1d
33e006a4:	e59f0028 	ldr	r0, [pc, #40]	; 33e006d4 <my_boot+0x48>
33e006a8:	eb0003ce 	bl	33e015e8 <printf>
33e006ac:	eb000564 	bl	33e01c44 <copy_kernel_toram>
33e006b0:	e3a01e99 	mov	r1, #2448	; 0x990
33e006b4:	e2844902 	add	r4, r4, #32768	; 0x8000
33e006b8:	e2811008 	add	r1, r1, #8	; 0x8
33e006bc:	e1a02005 	mov	r2, r5
33e006c0:	e3a00000 	mov	r0, #0	; 0x0
33e006c4:	e1a0e00f 	mov	lr, pc
33e006c8:	e12fff14 	bx	r4
33e006cc:	e8bd4070 	pop	{r4, r5, r6, lr}
33e006d0:	e12fff1e 	bx	lr
33e006d4:	33e024b4 	.word	0x33e024b4

33e006d8 <main>:
33e006d8:	e92d4010 	push	{r4, lr}
33e006dc:	e3a010d2 	mov	r1, #210	; 0xd2
33e006e0:	e59f0030 	ldr	r0, [pc, #48]	; 33e00718 <main+0x40>
33e006e4:	eb0003bf 	bl	33e015e8 <printf>
33e006e8:	e3a00502 	mov	r0, #8388608	; 0x800000
33e006ec:	e3a01000 	mov	r1, #0	; 0x0
33e006f0:	eb000327 	bl	33e01394 <waitkey>
33e006f4:	e350000d 	cmp	r0, #13	; 0xd
33e006f8:	1350000a 	cmpne	r0, #10	; 0xa
33e006fc:	0a000001 	beq	33e00708 <main+0x30>
33e00700:	e3500000 	cmp	r0, #0	; 0x0
33e00704:	1a000001 	bne	33e00710 <main+0x38>
33e00708:	e8bd4010 	pop	{r4, lr}
33e0070c:	eaffffde 	b	33e0068c <my_boot>
33e00710:	eb0004bc 	bl	33e01a08 <serial_term>
33e00714:	eafffffb 	b	33e00708 <main+0x30>
33e00718:	33e024d8 	.word	0x33e024d8

33e0071c <_putc>:
33e0071c:	e3a024e2 	mov	r2, #-503316480	; 0xe2000000
33e00720:	e2822609 	add	r2, r2, #9437184	; 0x900000
33e00724:	e5923010 	ldr	r3, [r2, #16]
33e00728:	e3130004 	tst	r3, #4	; 0x4
33e0072c:	0afffffc 	beq	33e00724 <_putc+0x8>
33e00730:	e350000a 	cmp	r0, #10	; 0xa
33e00734:	e5c20020 	strb	r0, [r2, #32]
33e00738:	e3a0000d 	mov	r0, #13	; 0xd
33e0073c:	0afffff8 	beq	33e00724 <_putc+0x8>
33e00740:	e12fff1e 	bx	lr

33e00744 <serial_getc>:
33e00744:	e3a024e2 	mov	r2, #-503316480	; 0xe2000000
33e00748:	e2822609 	add	r2, r2, #9437184	; 0x900000
33e0074c:	e5923010 	ldr	r3, [r2, #16]
33e00750:	e3130001 	tst	r3, #1	; 0x1
33e00754:	e3a034e2 	mov	r3, #-503316480	; 0xe2000000
33e00758:	e2833609 	add	r3, r3, #9437184	; 0x900000
33e0075c:	0afffffa 	beq	33e0074c <serial_getc+0x8>
33e00760:	e5d30024 	ldrb	r0, [r3, #36]
33e00764:	e12fff1e 	bx	lr

33e00768 <_puts>:
33e00768:	e3a0c000 	mov	ip, #0	; 0x0
33e0076c:	e7d0100c 	ldrb	r1, [r0, ip]
33e00770:	e3a024e2 	mov	r2, #-503316480	; 0xe2000000
33e00774:	e3510000 	cmp	r1, #0	; 0x0
33e00778:	e2822609 	add	r2, r2, #9437184	; 0x900000
33e0077c:	0a00000a 	beq	33e007ac <_puts+0x44>
33e00780:	e5923010 	ldr	r3, [r2, #16]
33e00784:	e3130004 	tst	r3, #4	; 0x4
33e00788:	0afffffc 	beq	33e00780 <_puts+0x18>
33e0078c:	e351000a 	cmp	r1, #10	; 0xa
33e00790:	e5c21020 	strb	r1, [r2, #32]
33e00794:	03a0100d 	moveq	r1, #13	; 0xd
33e00798:	0afffff8 	beq	33e00780 <_puts+0x18>
33e0079c:	e28cc001 	add	ip, ip, #1	; 0x1
33e007a0:	e7d0100c 	ldrb	r1, [r0, ip]
33e007a4:	e3510000 	cmp	r1, #0	; 0x0
33e007a8:	1afffff4 	bne	33e00780 <_puts+0x18>
33e007ac:	e12fff1e 	bx	lr

33e007b0 <putnstr>:
33e007b0:	e3500000 	cmp	r0, #0	; 0x0
33e007b4:	012fff1e 	bxeq	lr
33e007b8:	e3510000 	cmp	r1, #0	; 0x0
33e007bc:	012fff1e 	bxeq	lr
33e007c0:	e5d0c000 	ldrb	ip, [r0]
33e007c4:	e35c0000 	cmp	ip, #0	; 0x0
33e007c8:	012fff1e 	bxeq	lr
33e007cc:	e3a024e2 	mov	r2, #-503316480	; 0xe2000000
33e007d0:	e2822609 	add	r2, r2, #9437184	; 0x900000
33e007d4:	e5923010 	ldr	r3, [r2, #16]
33e007d8:	e3130004 	tst	r3, #4	; 0x4
33e007dc:	0afffffc 	beq	33e007d4 <putnstr+0x24>
33e007e0:	e35c000a 	cmp	ip, #10	; 0xa
33e007e4:	e5c2c020 	strb	ip, [r2, #32]
33e007e8:	e3a0c00d 	mov	ip, #13	; 0xd
33e007ec:	0afffff8 	beq	33e007d4 <putnstr+0x24>
33e007f0:	e2511001 	subs	r1, r1, #1	; 0x1
33e007f4:	012fff1e 	bxeq	lr
33e007f8:	e5f0c001 	ldrb	ip, [r0, #1]!
33e007fc:	e35c0000 	cmp	ip, #0	; 0x0
33e00800:	1afffff3 	bne	33e007d4 <putnstr+0x24>
33e00804:	e12fff1e 	bx	lr

33e00808 <strnlen>:
33e00808:	e3510000 	cmp	r1, #0	; 0x0
33e0080c:	e1a02000 	mov	r2, r0
33e00810:	0a00000d 	beq	33e0084c <strnlen+0x44>
33e00814:	e5d03000 	ldrb	r3, [r0]
33e00818:	e3530000 	cmp	r3, #0	; 0x0
33e0081c:	0a00000a 	beq	33e0084c <strnlen+0x44>
33e00820:	e2411001 	sub	r1, r1, #1	; 0x1
33e00824:	ea000002 	b	33e00834 <strnlen+0x2c>
33e00828:	e5d03000 	ldrb	r3, [r0]
33e0082c:	e3530000 	cmp	r3, #0	; 0x0
33e00830:	0a000003 	beq	33e00844 <strnlen+0x3c>
33e00834:	e3510000 	cmp	r1, #0	; 0x0
33e00838:	e2800001 	add	r0, r0, #1	; 0x1
33e0083c:	e2411001 	sub	r1, r1, #1	; 0x1
33e00840:	1afffff8 	bne	33e00828 <strnlen+0x20>
33e00844:	e0620000 	rsb	r0, r2, r0
33e00848:	e12fff1e 	bx	lr
33e0084c:	e3a00000 	mov	r0, #0	; 0x0
33e00850:	e12fff1e 	bx	lr

33e00854 <number>:
33e00854:	e92d4ff0 	push	{r4, r5, r6, r7, r8, r9, sl, fp, lr}
33e00858:	e24dd0a4 	sub	sp, sp, #164	; 0xa4
33e0085c:	e59dc0d4 	ldr	ip, [sp, #212]
33e00860:	e1a04002 	mov	r4, r2
33e00864:	e59d20d4 	ldr	r2, [sp, #212]
33e00868:	e31c0040 	tst	ip, #64	; 0x40
33e0086c:	e59da0c8 	ldr	sl, [sp, #200]
33e00870:	028d907b 	addeq	r9, sp, #123	; 0x7b
33e00874:	128d9056 	addne	r9, sp, #86	; 0x56
33e00878:	e3120010 	tst	r2, #16	; 0x10
33e0087c:	13c22001 	bicne	r2, r2, #1	; 0x1
33e00880:	e1a05003 	mov	r5, r3
33e00884:	e24a3002 	sub	r3, sl, #2	; 0x2
33e00888:	158d20d4 	strne	r2, [sp, #212]
33e0088c:	e3530022 	cmp	r3, #34	; 0x22
33e00890:	e1a0b000 	mov	fp, r0
33e00894:	e1a08001 	mov	r8, r1
33e00898:	83a00000 	movhi	r0, #0	; 0x0
33e0089c:	8a00008f 	bhi	33e00ae0 <number+0x28c>
33e008a0:	e59d30d4 	ldr	r3, [sp, #212]
33e008a4:	e3130001 	tst	r3, #1	; 0x1
33e008a8:	13a0c030 	movne	ip, #48	; 0x30
33e008ac:	03a0c020 	moveq	ip, #32	; 0x20
33e008b0:	e3130002 	tst	r3, #2	; 0x2
33e008b4:	e58dc008 	str	ip, [sp, #8]
33e008b8:	1a00008b 	bne	33e00aec <number+0x298>
33e008bc:	e3a03000 	mov	r3, #0	; 0x0
33e008c0:	e58d300c 	str	r3, [sp, #12]
33e008c4:	e59dc0d4 	ldr	ip, [sp, #212]
33e008c8:	e21cc020 	ands	ip, ip, #32	; 0x20
33e008cc:	e58dc004 	str	ip, [sp, #4]
33e008d0:	0a000008 	beq	33e008f8 <number+0xa4>
33e008d4:	e35a0010 	cmp	sl, #16	; 0x10
33e008d8:	059d20cc 	ldreq	r2, [sp, #204]
33e008dc:	02422002 	subeq	r2, r2, #2	; 0x2
33e008e0:	058d20cc 	streq	r2, [sp, #204]
33e008e4:	0a000003 	beq	33e008f8 <number+0xa4>
33e008e8:	e35a0008 	cmp	sl, #8	; 0x8
33e008ec:	059d30cc 	ldreq	r3, [sp, #204]
33e008f0:	02433001 	subeq	r3, r3, #1	; 0x1
33e008f4:	058d30cc 	streq	r3, [sp, #204]
33e008f8:	e59f126c 	ldr	r1, [pc, #620]	; 33e00b6c <number+0x318>
33e008fc:	e3a02025 	mov	r2, #37	; 0x25
33e00900:	e28d007b 	add	r0, sp, #123	; 0x7b
33e00904:	eb0005a5 	bl	33e01fa0 <memcpy>
33e00908:	e28d0056 	add	r0, sp, #86	; 0x56
33e0090c:	e59f125c 	ldr	r1, [pc, #604]	; 33e00b70 <number+0x31c>
33e00910:	e3a02025 	mov	r2, #37	; 0x25
33e00914:	eb0005a1 	bl	33e01fa0 <memcpy>
33e00918:	e194c005 	orrs	ip, r4, r5
33e0091c:	028d70a0 	addeq	r7, sp, #160	; 0xa0
33e00920:	03a03030 	moveq	r3, #48	; 0x30
33e00924:	0567308c 	strbeq	r3, [r7, #-140]!
33e00928:	03a06001 	moveq	r6, #1	; 0x1
33e0092c:	0a00000f 	beq	33e00970 <number+0x11c>
33e00930:	e3a06000 	mov	r6, #0	; 0x0
33e00934:	e28d7014 	add	r7, sp, #20	; 0x14
33e00938:	e1a00004 	mov	r0, r4
33e0093c:	e1a0100a 	mov	r1, sl
33e00940:	eb00063e 	bl	33e02240 <__aeabi_uidiv>
33e00944:	e1a03004 	mov	r3, r4
33e00948:	e1a0100a 	mov	r1, sl
33e0094c:	e1a04000 	mov	r4, r0
33e00950:	e3a05000 	mov	r5, #0	; 0x0
33e00954:	e1a00003 	mov	r0, r3
33e00958:	eb000675 	bl	33e02334 <__aeabi_uidivmod>
33e0095c:	e7d92001 	ldrb	r2, [r9, r1]
33e00960:	e3540000 	cmp	r4, #0	; 0x0
33e00964:	e7c72006 	strb	r2, [r7, r6]
33e00968:	e2866001 	add	r6, r6, #1	; 0x1
33e0096c:	1afffff1 	bne	33e00938 <number+0xe4>
33e00970:	e28d10d0 	add	r1, sp, #208	; 0xd0
33e00974:	e8910006 	ldm	r1, {r1, r2}
33e00978:	e59d30cc 	ldr	r3, [sp, #204]
33e0097c:	e1510006 	cmp	r1, r6
33e00980:	b1a01006 	movlt	r1, r6
33e00984:	e3120011 	tst	r2, #17	; 0x11
33e00988:	e0612003 	rsb	r2, r1, r3
33e0098c:	11a0c002 	movne	ip, r2
33e00990:	1a00000c 	bne	33e009c8 <number+0x174>
33e00994:	e3520000 	cmp	r2, #0	; 0x0
33e00998:	e242c001 	sub	ip, r2, #1	; 0x1
33e0099c:	da000009 	ble	33e009c8 <number+0x174>
33e009a0:	e1a0000b 	mov	r0, fp
33e009a4:	e08b3002 	add	r3, fp, r2
33e009a8:	e3a0e020 	mov	lr, #32	; 0x20
33e009ac:	e1580000 	cmp	r8, r0
33e009b0:	25c0e000 	strbcs	lr, [r0]
33e009b4:	e2800001 	add	r0, r0, #1	; 0x1
33e009b8:	e1500003 	cmp	r0, r3
33e009bc:	1afffffa 	bne	33e009ac <number+0x158>
33e009c0:	e062c00c 	rsb	ip, r2, ip
33e009c4:	e1a0b000 	mov	fp, r0
33e009c8:	e59d200c 	ldr	r2, [sp, #12]
33e009cc:	e3520000 	cmp	r2, #0	; 0x0
33e009d0:	0a000002 	beq	33e009e0 <number+0x18c>
33e009d4:	e15b0008 	cmp	fp, r8
33e009d8:	95cb2000 	strbls	r2, [fp]
33e009dc:	e28bb001 	add	fp, fp, #1	; 0x1
33e009e0:	e59d3004 	ldr	r3, [sp, #4]
33e009e4:	e3530000 	cmp	r3, #0	; 0x0
33e009e8:	0a00000b 	beq	33e00a1c <number+0x1c8>
33e009ec:	e35a0008 	cmp	sl, #8	; 0x8
33e009f0:	0a000050 	beq	33e00b38 <number+0x2e4>
33e009f4:	e35a0010 	cmp	sl, #16	; 0x10
33e009f8:	1a000007 	bne	33e00a1c <number+0x1c8>
33e009fc:	e15b0008 	cmp	fp, r8
33e00a00:	93a03030 	movls	r3, #48	; 0x30
33e00a04:	95cb3000 	strbls	r3, [fp]
33e00a08:	e28b2001 	add	r2, fp, #1	; 0x1
33e00a0c:	e1580002 	cmp	r8, r2
33e00a10:	25d93021 	ldrbcs	r3, [r9, #33]
33e00a14:	25cb3001 	strbcs	r3, [fp, #1]
33e00a18:	e282b001 	add	fp, r2, #1	; 0x1
33e00a1c:	e59d20d4 	ldr	r2, [sp, #212]
33e00a20:	e3120010 	tst	r2, #16	; 0x10
33e00a24:	11a0e00c 	movne	lr, ip
33e00a28:	1a00000c 	bne	33e00a60 <number+0x20c>
33e00a2c:	e35c0000 	cmp	ip, #0	; 0x0
33e00a30:	e24ce001 	sub	lr, ip, #1	; 0x1
33e00a34:	da000009 	ble	33e00a60 <number+0x20c>
33e00a38:	e1a0000b 	mov	r0, fp
33e00a3c:	e08b300c 	add	r3, fp, ip
33e00a40:	e1580000 	cmp	r8, r0
33e00a44:	259dc008 	ldrcs	ip, [sp, #8]
33e00a48:	25c0c000 	strbcs	ip, [r0]
33e00a4c:	e2800001 	add	r0, r0, #1	; 0x1
33e00a50:	e1500003 	cmp	r0, r3
33e00a54:	1afffff9 	bne	33e00a40 <number+0x1ec>
33e00a58:	e1a0b000 	mov	fp, r0
33e00a5c:	e3e0e000 	mvn	lr, #0	; 0x0
33e00a60:	e1560001 	cmp	r6, r1
33e00a64:	aa00000a 	bge	33e00a94 <number+0x240>
33e00a68:	e3a02000 	mov	r2, #0	; 0x0
33e00a6c:	e3a00030 	mov	r0, #48	; 0x30
33e00a70:	e08b3002 	add	r3, fp, r2
33e00a74:	e1580003 	cmp	r8, r3
33e00a78:	27cb0002 	strbcs	r0, [fp, r2]
33e00a7c:	e2822001 	add	r2, r2, #1	; 0x1
33e00a80:	e0623001 	rsb	r3, r2, r1
33e00a84:	e1560003 	cmp	r6, r3
33e00a88:	bafffff8 	blt	33e00a70 <number+0x21c>
33e00a8c:	e0663001 	rsb	r3, r6, r1
33e00a90:	e08bb003 	add	fp, fp, r3
33e00a94:	e0871006 	add	r1, r7, r6
33e00a98:	e1a0200b 	mov	r2, fp
33e00a9c:	e1580002 	cmp	r8, r2
33e00aa0:	25513001 	ldrbcs	r3, [r1, #-1]
33e00aa4:	e2411001 	sub	r1, r1, #1	; 0x1
33e00aa8:	25c23000 	strbcs	r3, [r2]
33e00aac:	e1510007 	cmp	r1, r7
33e00ab0:	e2822001 	add	r2, r2, #1	; 0x1
33e00ab4:	1afffff8 	bne	33e00a9c <number+0x248>
33e00ab8:	e35e0000 	cmp	lr, #0	; 0x0
33e00abc:	e08b0006 	add	r0, fp, r6
33e00ac0:	da000006 	ble	33e00ae0 <number+0x28c>
33e00ac4:	e080300e 	add	r3, r0, lr
33e00ac8:	e3a02020 	mov	r2, #32	; 0x20
33e00acc:	e1500008 	cmp	r0, r8
33e00ad0:	95c02000 	strbls	r2, [r0]
33e00ad4:	e2800001 	add	r0, r0, #1	; 0x1
33e00ad8:	e1500003 	cmp	r0, r3
33e00adc:	1afffffa 	bne	33e00acc <number+0x278>
33e00ae0:	e28dd0a4 	add	sp, sp, #164	; 0xa4
33e00ae4:	e8bd4ff0 	pop	{r4, r5, r6, r7, r8, r9, sl, fp, lr}
33e00ae8:	e12fff1e 	bx	lr
33e00aec:	e3550000 	cmp	r5, #0	; 0x0
33e00af0:	ba000015 	blt	33e00b4c <number+0x2f8>
33e00af4:	e3130004 	tst	r3, #4	; 0x4
33e00af8:	1a000008 	bne	33e00b20 <number+0x2cc>
33e00afc:	e59d30d4 	ldr	r3, [sp, #212]
33e00b00:	e3130008 	tst	r3, #8	; 0x8
33e00b04:	0affff6c 	beq	33e008bc <number+0x68>
33e00b08:	e59dc0cc 	ldr	ip, [sp, #204]
33e00b0c:	e3a02020 	mov	r2, #32	; 0x20
33e00b10:	e24cc001 	sub	ip, ip, #1	; 0x1
33e00b14:	e58dc0cc 	str	ip, [sp, #204]
33e00b18:	e58d200c 	str	r2, [sp, #12]
33e00b1c:	eaffff68 	b	33e008c4 <number+0x70>
33e00b20:	e59dc0cc 	ldr	ip, [sp, #204]
33e00b24:	e3a0202b 	mov	r2, #43	; 0x2b
33e00b28:	e24cc001 	sub	ip, ip, #1	; 0x1
33e00b2c:	e58dc0cc 	str	ip, [sp, #204]
33e00b30:	e58d200c 	str	r2, [sp, #12]
33e00b34:	eaffff62 	b	33e008c4 <number+0x70>
33e00b38:	e15b0008 	cmp	fp, r8
33e00b3c:	93a03030 	movls	r3, #48	; 0x30
33e00b40:	95cb3000 	strbls	r3, [fp]
33e00b44:	e28bb001 	add	fp, fp, #1	; 0x1
33e00b48:	eaffffb3 	b	33e00a1c <number+0x1c8>
33e00b4c:	e59d20cc 	ldr	r2, [sp, #204]
33e00b50:	e3a0302d 	mov	r3, #45	; 0x2d
33e00b54:	e2422001 	sub	r2, r2, #1	; 0x1
33e00b58:	e2744000 	rsbs	r4, r4, #0	; 0x0
33e00b5c:	e2e55000 	rsc	r5, r5, #0	; 0x0
33e00b60:	e58d20cc 	str	r2, [sp, #204]
33e00b64:	e58d300c 	str	r3, [sp, #12]
33e00b68:	eaffff55 	b	33e008c4 <number+0x70>
33e00b6c:	33e02504 	.word	0x33e02504
33e00b70:	33e0252c 	.word	0x33e0252c

33e00b74 <vsnprintf>:
33e00b74:	e92d4ff0 	push	{r4, r5, r6, r7, r8, r9, sl, fp, lr}
33e00b78:	e24dd01c 	sub	sp, sp, #28	; 0x1c
33e00b7c:	e58d1010 	str	r1, [sp, #16]
33e00b80:	e2411001 	sub	r1, r1, #1	; 0x1
33e00b84:	e58d0014 	str	r0, [sp, #20]
33e00b88:	e0809001 	add	r9, r0, r1
33e00b8c:	e2400001 	sub	r0, r0, #1	; 0x1
33e00b90:	e1590000 	cmp	r9, r0
33e00b94:	359d0014 	ldrcc	r0, [sp, #20]
33e00b98:	32600000 	rsbcc	r0, r0, #0	; 0x0
33e00b9c:	358d0010 	strcc	r0, [sp, #16]
33e00ba0:	e1a0a003 	mov	sl, r3
33e00ba4:	e5d23000 	ldrb	r3, [r2]
33e00ba8:	33e09000 	mvncc	r9, #0	; 0x0
33e00bac:	e3530000 	cmp	r3, #0	; 0x0
33e00bb0:	e1a04002 	mov	r4, r2
33e00bb4:	059d0014 	ldreq	r0, [sp, #20]
33e00bb8:	0a0000c0 	beq	33e00ec0 <vsnprintf+0x34c>
33e00bbc:	e3530025 	cmp	r3, #37	; 0x25
33e00bc0:	e59d7014 	ldr	r7, [sp, #20]
33e00bc4:	03a06000 	moveq	r6, #0	; 0x0
33e00bc8:	0a000009 	beq	33e00bf4 <vsnprintf+0x80>
33e00bcc:	e1590007 	cmp	r9, r7
33e00bd0:	25c73000 	strbcs	r3, [r7]
33e00bd4:	e2870001 	add	r0, r7, #1	; 0x1
33e00bd8:	e5f43001 	ldrb	r3, [r4, #1]!
33e00bdc:	e3530000 	cmp	r3, #0	; 0x0
33e00be0:	0a0000b6 	beq	33e00ec0 <vsnprintf+0x34c>
33e00be4:	e3530025 	cmp	r3, #37	; 0x25
33e00be8:	e1a07000 	mov	r7, r0
33e00bec:	03a06000 	moveq	r6, #0	; 0x0
33e00bf0:	1afffff5 	bne	33e00bcc <vsnprintf+0x58>
33e00bf4:	e5f4c001 	ldrb	ip, [r4, #1]!
33e00bf8:	e24c3020 	sub	r3, ip, #32	; 0x20
33e00bfc:	e3530010 	cmp	r3, #16	; 0x10
33e00c00:	979ff103 	ldrls	pc, [pc, r3, lsl #2]
33e00c04:	ea000010 	b	33e00c4c <vsnprintf+0xd8>
33e00c08:	33e00e3c 	.word	0x33e00e3c
33e00c0c:	33e00c4c 	.word	0x33e00c4c
33e00c10:	33e00c4c 	.word	0x33e00c4c
33e00c14:	33e00e34 	.word	0x33e00e34
33e00c18:	33e00c4c 	.word	0x33e00c4c
33e00c1c:	33e00c4c 	.word	0x33e00c4c
33e00c20:	33e00c4c 	.word	0x33e00c4c
33e00c24:	33e00c4c 	.word	0x33e00c4c
33e00c28:	33e00c4c 	.word	0x33e00c4c
33e00c2c:	33e00c4c 	.word	0x33e00c4c
33e00c30:	33e00c4c 	.word	0x33e00c4c
33e00c34:	33e00e2c 	.word	0x33e00e2c
33e00c38:	33e00c4c 	.word	0x33e00c4c
33e00c3c:	33e00e24 	.word	0x33e00e24
33e00c40:	33e00c4c 	.word	0x33e00c4c
33e00c44:	33e00c4c 	.word	0x33e00c4c
33e00c48:	33e00e1c 	.word	0x33e00e1c
33e00c4c:	e59f1674 	ldr	r1, [pc, #1652]	; 33e012c8 <vsnprintf+0x754>
33e00c50:	e7d1300c 	ldrb	r3, [r1, ip]
33e00c54:	e3130004 	tst	r3, #4	; 0x4
33e00c58:	e1a0000c 	mov	r0, ip
33e00c5c:	0a0000ae 	beq	33e00f1c <vsnprintf+0x3a8>
33e00c60:	e3a05000 	mov	r5, #0	; 0x0
33e00c64:	e5f4c001 	ldrb	ip, [r4, #1]!
33e00c68:	e59f2658 	ldr	r2, [pc, #1624]	; 33e012c8 <vsnprintf+0x754>
33e00c6c:	e7d2100c 	ldrb	r1, [r2, ip]
33e00c70:	e1a03085 	lsl	r3, r5, #1
33e00c74:	e1a02185 	lsl	r2, r5, #3
33e00c78:	e0833002 	add	r3, r3, r2
33e00c7c:	e3110004 	tst	r1, #4	; 0x4
33e00c80:	e2402030 	sub	r2, r0, #48	; 0x30
33e00c84:	e0825003 	add	r5, r2, r3
33e00c88:	e1a0000c 	mov	r0, ip
33e00c8c:	1afffff4 	bne	33e00c64 <vsnprintf+0xf0>
33e00c90:	e35c002e 	cmp	ip, #46	; 0x2e
33e00c94:	13e08000 	mvnne	r8, #0	; 0x0
33e00c98:	0a0000ad 	beq	33e00f54 <vsnprintf+0x3e0>
33e00c9c:	e35c006c 	cmp	ip, #108	; 0x6c
33e00ca0:	135c0068 	cmpne	ip, #104	; 0x68
33e00ca4:	0a000092 	beq	33e00ef4 <vsnprintf+0x380>
33e00ca8:	e35c004c 	cmp	ip, #76	; 0x4c
33e00cac:	0a0000bd 	beq	33e00fa8 <vsnprintf+0x434>
33e00cb0:	e35c005a 	cmp	ip, #90	; 0x5a
33e00cb4:	13e02000 	mvnne	r2, #0	; 0x0
33e00cb8:	0a0000ba 	beq	33e00fa8 <vsnprintf+0x434>
33e00cbc:	e24c3025 	sub	r3, ip, #37	; 0x25
33e00cc0:	e3530053 	cmp	r3, #83	; 0x53
33e00cc4:	979ff103 	ldrls	pc, [pc, r3, lsl #2]
33e00cc8:	ea0000db 	b	33e0103c <vsnprintf+0x4c8>
33e00ccc:	33e00fd8 	.word	0x33e00fd8
33e00cd0:	33e0103c 	.word	0x33e0103c
33e00cd4:	33e0103c 	.word	0x33e0103c
33e00cd8:	33e0103c 	.word	0x33e0103c
33e00cdc:	33e0103c 	.word	0x33e0103c
33e00ce0:	33e0103c 	.word	0x33e0103c
33e00ce4:	33e0103c 	.word	0x33e0103c
33e00ce8:	33e0103c 	.word	0x33e0103c
33e00cec:	33e0103c 	.word	0x33e0103c
33e00cf0:	33e0103c 	.word	0x33e0103c
33e00cf4:	33e0103c 	.word	0x33e0103c
33e00cf8:	33e0103c 	.word	0x33e0103c
33e00cfc:	33e0103c 	.word	0x33e0103c
33e00d00:	33e0103c 	.word	0x33e0103c
33e00d04:	33e0103c 	.word	0x33e0103c
33e00d08:	33e0103c 	.word	0x33e0103c
33e00d0c:	33e0103c 	.word	0x33e0103c
33e00d10:	33e0103c 	.word	0x33e0103c
33e00d14:	33e0103c 	.word	0x33e0103c
33e00d18:	33e0103c 	.word	0x33e0103c
33e00d1c:	33e0103c 	.word	0x33e0103c
33e00d20:	33e0103c 	.word	0x33e0103c
33e00d24:	33e0103c 	.word	0x33e0103c
33e00d28:	33e0103c 	.word	0x33e0103c
33e00d2c:	33e0103c 	.word	0x33e0103c
33e00d30:	33e0103c 	.word	0x33e0103c
33e00d34:	33e0103c 	.word	0x33e0103c
33e00d38:	33e0103c 	.word	0x33e0103c
33e00d3c:	33e0103c 	.word	0x33e0103c
33e00d40:	33e0103c 	.word	0x33e0103c
33e00d44:	33e0103c 	.word	0x33e0103c
33e00d48:	33e0103c 	.word	0x33e0103c
33e00d4c:	33e0103c 	.word	0x33e0103c
33e00d50:	33e0103c 	.word	0x33e0103c
33e00d54:	33e0103c 	.word	0x33e0103c
33e00d58:	33e0103c 	.word	0x33e0103c
33e00d5c:	33e0103c 	.word	0x33e0103c
33e00d60:	33e0103c 	.word	0x33e0103c
33e00d64:	33e0103c 	.word	0x33e0103c
33e00d68:	33e0103c 	.word	0x33e0103c
33e00d6c:	33e0103c 	.word	0x33e0103c
33e00d70:	33e0103c 	.word	0x33e0103c
33e00d74:	33e0103c 	.word	0x33e0103c
33e00d78:	33e0103c 	.word	0x33e0103c
33e00d7c:	33e0103c 	.word	0x33e0103c
33e00d80:	33e0103c 	.word	0x33e0103c
33e00d84:	33e0103c 	.word	0x33e0103c
33e00d88:	33e0103c 	.word	0x33e0103c
33e00d8c:	33e0103c 	.word	0x33e0103c
33e00d90:	33e0103c 	.word	0x33e0103c
33e00d94:	33e0103c 	.word	0x33e0103c
33e00d98:	33e00e44 	.word	0x33e00e44
33e00d9c:	33e0103c 	.word	0x33e0103c
33e00da0:	33e0103c 	.word	0x33e0103c
33e00da4:	33e0103c 	.word	0x33e0103c
33e00da8:	33e0103c 	.word	0x33e0103c
33e00dac:	33e0103c 	.word	0x33e0103c
33e00db0:	33e0103c 	.word	0x33e0103c
33e00db4:	33e0103c 	.word	0x33e0103c
33e00db8:	33e0103c 	.word	0x33e0103c
33e00dbc:	33e0103c 	.word	0x33e0103c
33e00dc0:	33e0103c 	.word	0x33e0103c
33e00dc4:	33e00fe8 	.word	0x33e00fe8
33e00dc8:	33e011b8 	.word	0x33e011b8
33e00dcc:	33e0103c 	.word	0x33e0103c
33e00dd0:	33e0103c 	.word	0x33e0103c
33e00dd4:	33e0103c 	.word	0x33e0103c
33e00dd8:	33e0103c 	.word	0x33e0103c
33e00ddc:	33e011b8 	.word	0x33e011b8
33e00de0:	33e0103c 	.word	0x33e0103c
33e00de4:	33e0103c 	.word	0x33e0103c
33e00de8:	33e0103c 	.word	0x33e0103c
33e00dec:	33e0103c 	.word	0x33e0103c
33e00df0:	33e0118c 	.word	0x33e0118c
33e00df4:	33e011c4 	.word	0x33e011c4
33e00df8:	33e01154 	.word	0x33e01154
33e00dfc:	33e0103c 	.word	0x33e0103c
33e00e00:	33e0103c 	.word	0x33e0103c
33e00e04:	33e0108c 	.word	0x33e0108c
33e00e08:	33e0103c 	.word	0x33e0103c
33e00e0c:	33e0106c 	.word	0x33e0106c
33e00e10:	33e0103c 	.word	0x33e0103c
33e00e14:	33e0103c 	.word	0x33e0103c
33e00e18:	33e00e48 	.word	0x33e00e48
33e00e1c:	e3866001 	orr	r6, r6, #1	; 0x1
33e00e20:	eaffff73 	b	33e00bf4 <vsnprintf+0x80>
33e00e24:	e3866010 	orr	r6, r6, #16	; 0x10
33e00e28:	eaffff71 	b	33e00bf4 <vsnprintf+0x80>
33e00e2c:	e3866004 	orr	r6, r6, #4	; 0x4
33e00e30:	eaffff6f 	b	33e00bf4 <vsnprintf+0x80>
33e00e34:	e3866020 	orr	r6, r6, #32	; 0x20
33e00e38:	eaffff6d 	b	33e00bf4 <vsnprintf+0x80>
33e00e3c:	e3866008 	orr	r6, r6, #8	; 0x8
33e00e40:	eaffff6b 	b	33e00bf4 <vsnprintf+0x80>
33e00e44:	e3866040 	orr	r6, r6, #64	; 0x40
33e00e48:	e3a0c010 	mov	ip, #16	; 0x10
33e00e4c:	e352004c 	cmp	r2, #76	; 0x4c
33e00e50:	0a000088 	beq	33e01078 <vsnprintf+0x504>
33e00e54:	e352006c 	cmp	r2, #108	; 0x6c
33e00e58:	0a000007 	beq	33e00e7c <vsnprintf+0x308>
33e00e5c:	e352005a 	cmp	r2, #90	; 0x5a
33e00e60:	059a3000 	ldreq	r3, [sl]
33e00e64:	028aa004 	addeq	sl, sl, #4	; 0x4
33e00e68:	01a01003 	moveq	r1, r3
33e00e6c:	03a02000 	moveq	r2, #0	; 0x0
33e00e70:	0a000007 	beq	33e00e94 <vsnprintf+0x320>
33e00e74:	e3520068 	cmp	r2, #104	; 0x68
33e00e78:	0a0000d3 	beq	33e011cc <vsnprintf+0x658>
33e00e7c:	e59a3000 	ldr	r3, [sl]
33e00e80:	e3160002 	tst	r6, #2	; 0x2
33e00e84:	e1a01003 	mov	r1, r3
33e00e88:	e3a02000 	mov	r2, #0	; 0x0
33e00e8c:	e28aa004 	add	sl, sl, #4	; 0x4
33e00e90:	11a02fc1 	asrne	r2, r1, #31
33e00e94:	e1a03002 	mov	r3, r2
33e00e98:	e1a00007 	mov	r0, r7
33e00e9c:	e1a02001 	mov	r2, r1
33e00ea0:	e1a01009 	mov	r1, r9
33e00ea4:	e58dc000 	str	ip, [sp]
33e00ea8:	e98d0120 	stmib	sp, {r5, r8}
33e00eac:	e58d600c 	str	r6, [sp, #12]
33e00eb0:	ebfffe67 	bl	33e00854 <number>
33e00eb4:	e5f43001 	ldrb	r3, [r4, #1]!
33e00eb8:	e3530000 	cmp	r3, #0	; 0x0
33e00ebc:	1affff48 	bne	33e00be4 <vsnprintf+0x70>
33e00ec0:	e1590000 	cmp	r9, r0
33e00ec4:	23a03000 	movcs	r3, #0	; 0x0
33e00ec8:	25c03000 	strbcs	r3, [r0]
33e00ecc:	2a000003 	bcs	33e00ee0 <vsnprintf+0x36c>
33e00ed0:	e59d2010 	ldr	r2, [sp, #16]
33e00ed4:	e3520000 	cmp	r2, #0	; 0x0
33e00ed8:	13a03000 	movne	r3, #0	; 0x0
33e00edc:	15c93000 	strbne	r3, [r9]
33e00ee0:	e59d3014 	ldr	r3, [sp, #20]
33e00ee4:	e0630000 	rsb	r0, r3, r0
33e00ee8:	e28dd01c 	add	sp, sp, #28	; 0x1c
33e00eec:	e8bd4ff0 	pop	{r4, r5, r6, r7, r8, r9, sl, fp, lr}
33e00ef0:	e12fff1e 	bx	lr
33e00ef4:	e35c006c 	cmp	ip, #108	; 0x6c
33e00ef8:	e2844001 	add	r4, r4, #1	; 0x1
33e00efc:	e1a0200c 	mov	r2, ip
33e00f00:	15d4c000 	ldrbne	ip, [r4]
33e00f04:	1affff6c 	bne	33e00cbc <vsnprintf+0x148>
33e00f08:	e5d4c000 	ldrb	ip, [r4]
33e00f0c:	e35c006c 	cmp	ip, #108	; 0x6c
33e00f10:	05f4c001 	ldrbeq	ip, [r4, #1]!
33e00f14:	03a0204c 	moveq	r2, #76	; 0x4c
33e00f18:	eaffff67 	b	33e00cbc <vsnprintf+0x148>
33e00f1c:	e35c002a 	cmp	ip, #42	; 0x2a
33e00f20:	13e05000 	mvnne	r5, #0	; 0x0
33e00f24:	1affff59 	bne	33e00c90 <vsnprintf+0x11c>
33e00f28:	e59a5000 	ldr	r5, [sl]
33e00f2c:	e2844001 	add	r4, r4, #1	; 0x1
33e00f30:	e3550000 	cmp	r5, #0	; 0x0
33e00f34:	a5d4c000 	ldrbge	ip, [r4]
33e00f38:	b5d4c000 	ldrblt	ip, [r4]
33e00f3c:	b2655000 	rsblt	r5, r5, #0	; 0x0
33e00f40:	b3866010 	orrlt	r6, r6, #16	; 0x10
33e00f44:	e35c002e 	cmp	ip, #46	; 0x2e
33e00f48:	e28aa004 	add	sl, sl, #4	; 0x4
33e00f4c:	13e08000 	mvnne	r8, #0	; 0x0
33e00f50:	1affff51 	bne	33e00c9c <vsnprintf+0x128>
33e00f54:	e5f40001 	ldrb	r0, [r4, #1]!
33e00f58:	e59fc368 	ldr	ip, [pc, #872]	; 33e012c8 <vsnprintf+0x754>
33e00f5c:	e7dc3000 	ldrb	r3, [ip, r0]
33e00f60:	e2132004 	ands	r2, r3, #4	; 0x4
33e00f64:	e1a0c000 	mov	ip, r0
33e00f68:	0a000011 	beq	33e00fb4 <vsnprintf+0x440>
33e00f6c:	e3a08000 	mov	r8, #0	; 0x0
33e00f70:	e5f4c001 	ldrb	ip, [r4, #1]!
33e00f74:	e59f234c 	ldr	r2, [pc, #844]	; 33e012c8 <vsnprintf+0x754>
33e00f78:	e7d2100c 	ldrb	r1, [r2, ip]
33e00f7c:	e1a03088 	lsl	r3, r8, #1
33e00f80:	e1a02188 	lsl	r2, r8, #3
33e00f84:	e0833002 	add	r3, r3, r2
33e00f88:	e3110004 	tst	r1, #4	; 0x4
33e00f8c:	e2402030 	sub	r2, r0, #48	; 0x30
33e00f90:	e0828003 	add	r8, r2, r3
33e00f94:	e1a0000c 	mov	r0, ip
33e00f98:	1afffff4 	bne	33e00f70 <vsnprintf+0x3fc>
33e00f9c:	e3580000 	cmp	r8, #0	; 0x0
33e00fa0:	b3a08000 	movlt	r8, #0	; 0x0
33e00fa4:	eaffff3c 	b	33e00c9c <vsnprintf+0x128>
33e00fa8:	e1a0200c 	mov	r2, ip
33e00fac:	e5f4c001 	ldrb	ip, [r4, #1]!
33e00fb0:	eaffff41 	b	33e00cbc <vsnprintf+0x148>
33e00fb4:	e350002a 	cmp	r0, #42	; 0x2a
33e00fb8:	11a08002 	movne	r8, r2
33e00fbc:	1affff36 	bne	33e00c9c <vsnprintf+0x128>
33e00fc0:	e59a8000 	ldr	r8, [sl]
33e00fc4:	e3580000 	cmp	r8, #0	; 0x0
33e00fc8:	e5f4c001 	ldrb	ip, [r4, #1]!
33e00fcc:	e28aa004 	add	sl, sl, #4	; 0x4
33e00fd0:	b3a08000 	movlt	r8, #0	; 0x0
33e00fd4:	eaffff30 	b	33e00c9c <vsnprintf+0x128>
33e00fd8:	e1590007 	cmp	r9, r7
33e00fdc:	23a00025 	movcs	r0, #37	; 0x25
33e00fe0:	25c70000 	strbcs	r0, [r7]
33e00fe4:	eafffefa 	b	33e00bd4 <vsnprintf+0x60>
33e00fe8:	e3160010 	tst	r6, #16	; 0x10
33e00fec:	11a0c005 	movne	ip, r5
33e00ff0:	0a000081 	beq	33e011fc <vsnprintf+0x688>
33e00ff4:	e59a3000 	ldr	r3, [sl]
33e00ff8:	e1570009 	cmp	r7, r9
33e00ffc:	95c73000 	strbls	r3, [r7]
33e01000:	e35c0001 	cmp	ip, #1	; 0x1
33e01004:	e28aa004 	add	sl, sl, #4	; 0x4
33e01008:	e2870001 	add	r0, r7, #1	; 0x1
33e0100c:	dafffef1 	ble	33e00bd8 <vsnprintf+0x64>
33e01010:	e087300c 	add	r3, r7, ip
33e01014:	e1a01000 	mov	r1, r0
33e01018:	e1590001 	cmp	r9, r1
33e0101c:	23a02020 	movcs	r2, #32	; 0x20
33e01020:	25c12000 	strbcs	r2, [r1]
33e01024:	e2811001 	add	r1, r1, #1	; 0x1
33e01028:	e1510003 	cmp	r1, r3
33e0102c:	1afffff9 	bne	33e01018 <vsnprintf+0x4a4>
33e01030:	e24c3001 	sub	r3, ip, #1	; 0x1
33e01034:	e0800003 	add	r0, r0, r3
33e01038:	eafffee6 	b	33e00bd8 <vsnprintf+0x64>
33e0103c:	e1590007 	cmp	r9, r7
33e01040:	23a01025 	movcs	r1, #37	; 0x25
33e01044:	25c71000 	strbcs	r1, [r7]
33e01048:	25d4c000 	ldrbcs	ip, [r4]
33e0104c:	e35c0000 	cmp	ip, #0	; 0x0
33e01050:	e2870001 	add	r0, r7, #1	; 0x1
33e01054:	02444001 	subeq	r4, r4, #1	; 0x1
33e01058:	0afffede 	beq	33e00bd8 <vsnprintf+0x64>
33e0105c:	e1500009 	cmp	r0, r9
33e01060:	95c0c000 	strbls	ip, [r0]
33e01064:	e2800001 	add	r0, r0, #1	; 0x1
33e01068:	eafffeda 	b	33e00bd8 <vsnprintf+0x64>
33e0106c:	e352004c 	cmp	r2, #76	; 0x4c
33e01070:	e3a0c00a 	mov	ip, #10	; 0xa
33e01074:	1affff76 	bne	33e00e54 <vsnprintf+0x2e0>
33e01078:	e28a3007 	add	r3, sl, #7	; 0x7
33e0107c:	e3c33007 	bic	r3, r3, #7	; 0x7
33e01080:	e8930006 	ldm	r3, {r1, r2}
33e01084:	e283a008 	add	sl, r3, #8	; 0x8
33e01088:	eaffff81 	b	33e00e94 <vsnprintf+0x320>
33e0108c:	e59ab000 	ldr	fp, [sl]
33e01090:	e59f3234 	ldr	r3, [pc, #564]	; 33e012cc <vsnprintf+0x758>
33e01094:	e35b0000 	cmp	fp, #0	; 0x0
33e01098:	01a0b003 	moveq	fp, r3
33e0109c:	e3580000 	cmp	r8, #0	; 0x0
33e010a0:	e28aa004 	add	sl, sl, #4	; 0x4
33e010a4:	0a000085 	beq	33e012c0 <vsnprintf+0x74c>
33e010a8:	e5db3000 	ldrb	r3, [fp]
33e010ac:	e3530000 	cmp	r3, #0	; 0x0
33e010b0:	0a000082 	beq	33e012c0 <vsnprintf+0x74c>
33e010b4:	e2482001 	sub	r2, r8, #1	; 0x1
33e010b8:	e1a0100b 	mov	r1, fp
33e010bc:	ea000002 	b	33e010cc <vsnprintf+0x558>
33e010c0:	e5d13000 	ldrb	r3, [r1]
33e010c4:	e3530000 	cmp	r3, #0	; 0x0
33e010c8:	0a000003 	beq	33e010dc <vsnprintf+0x568>
33e010cc:	e3520000 	cmp	r2, #0	; 0x0
33e010d0:	e2811001 	add	r1, r1, #1	; 0x1
33e010d4:	e2422001 	sub	r2, r2, #1	; 0x1
33e010d8:	1afffff8 	bne	33e010c0 <vsnprintf+0x54c>
33e010dc:	e06b8001 	rsb	r8, fp, r1
33e010e0:	e2163010 	ands	r3, r6, #16	; 0x10
33e010e4:	11a00007 	movne	r0, r7
33e010e8:	11a01005 	movne	r1, r5
33e010ec:	0a000051 	beq	33e01238 <vsnprintf+0x6c4>
33e010f0:	e3580000 	cmp	r8, #0	; 0x0
33e010f4:	da000008 	ble	33e0111c <vsnprintf+0x5a8>
33e010f8:	e3a0c000 	mov	ip, #0	; 0x0
33e010fc:	e080300c 	add	r3, r0, ip
33e01100:	e1590003 	cmp	r9, r3
33e01104:	27db300c 	ldrbcs	r3, [fp, ip]
33e01108:	27c0300c 	strbcs	r3, [r0, ip]
33e0110c:	e28cc001 	add	ip, ip, #1	; 0x1
33e01110:	e15c0008 	cmp	ip, r8
33e01114:	bafffff8 	blt	33e010fc <vsnprintf+0x588>
33e01118:	e0800008 	add	r0, r0, r8
33e0111c:	e1510008 	cmp	r1, r8
33e01120:	dafffeac 	ble	33e00bd8 <vsnprintf+0x64>
33e01124:	e3a0c000 	mov	ip, #0	; 0x0
33e01128:	e080300c 	add	r3, r0, ip
33e0112c:	e1590003 	cmp	r9, r3
33e01130:	23a02020 	movcs	r2, #32	; 0x20
33e01134:	27c0200c 	strbcs	r2, [r0, ip]
33e01138:	e28cc001 	add	ip, ip, #1	; 0x1
33e0113c:	e06c3001 	rsb	r3, ip, r1
33e01140:	e1530008 	cmp	r3, r8
33e01144:	cafffff7 	bgt	33e01128 <vsnprintf+0x5b4>
33e01148:	e0683001 	rsb	r3, r8, r1
33e0114c:	e0800003 	add	r0, r0, r3
33e01150:	eafffea0 	b	33e00bd8 <vsnprintf+0x64>
33e01154:	e3750001 	cmn	r5, #1	; 0x1
33e01158:	e59a2000 	ldr	r2, [sl]
33e0115c:	03866001 	orreq	r6, r6, #1	; 0x1
33e01160:	02855009 	addeq	r5, r5, #9	; 0x9
33e01164:	e3a0c010 	mov	ip, #16	; 0x10
33e01168:	e1a00007 	mov	r0, r7
33e0116c:	e1a01009 	mov	r1, r9
33e01170:	e3a03000 	mov	r3, #0	; 0x0
33e01174:	e98d0120 	stmib	sp, {r5, r8}
33e01178:	e58d600c 	str	r6, [sp, #12]
33e0117c:	e58dc000 	str	ip, [sp]
33e01180:	e28aa004 	add	sl, sl, #4	; 0x4
33e01184:	ebfffdb2 	bl	33e00854 <number>
33e01188:	eafffe92 	b	33e00bd8 <vsnprintf+0x64>
33e0118c:	e352006c 	cmp	r2, #108	; 0x6c
33e01190:	0a000043 	beq	33e012a4 <vsnprintf+0x730>
33e01194:	e352005a 	cmp	r2, #90	; 0x5a
33e01198:	0a00003a 	beq	33e01288 <vsnprintf+0x714>
33e0119c:	e59dc014 	ldr	ip, [sp, #20]
33e011a0:	e59a2000 	ldr	r2, [sl]
33e011a4:	e06c3007 	rsb	r3, ip, r7
33e011a8:	e5823000 	str	r3, [r2]
33e011ac:	e1a00007 	mov	r0, r7
33e011b0:	e28aa004 	add	sl, sl, #4	; 0x4
33e011b4:	eafffe87 	b	33e00bd8 <vsnprintf+0x64>
33e011b8:	e3866002 	orr	r6, r6, #2	; 0x2
33e011bc:	e3a0c00a 	mov	ip, #10	; 0xa
33e011c0:	eaffff21 	b	33e00e4c <vsnprintf+0x2d8>
33e011c4:	e3a0c008 	mov	ip, #8	; 0x8
33e011c8:	eaffff1f 	b	33e00e4c <vsnprintf+0x2d8>
33e011cc:	e59a3000 	ldr	r3, [sl]
33e011d0:	e1a03803 	lsl	r3, r3, #16
33e011d4:	e1a03823 	lsr	r3, r3, #16
33e011d8:	e3160002 	tst	r6, #2	; 0x2
33e011dc:	e1a01003 	mov	r1, r3
33e011e0:	e3a02000 	mov	r2, #0	; 0x0
33e011e4:	11a03801 	lslne	r3, r1, #16
33e011e8:	11a03843 	asrne	r3, r3, #16
33e011ec:	e28aa004 	add	sl, sl, #4	; 0x4
33e011f0:	11a01003 	movne	r1, r3
33e011f4:	11a02fc1 	asrne	r2, r1, #31
33e011f8:	eaffff25 	b	33e00e94 <vsnprintf+0x320>
33e011fc:	e2452001 	sub	r2, r5, #1	; 0x1
33e01200:	e3520000 	cmp	r2, #0	; 0x0
33e01204:	e1a0c002 	mov	ip, r2
33e01208:	daffff79 	ble	33e00ff4 <vsnprintf+0x480>
33e0120c:	e1a00007 	mov	r0, r7
33e01210:	e0872002 	add	r2, r7, r2
33e01214:	e1590000 	cmp	r9, r0
33e01218:	23a03020 	movcs	r3, #32	; 0x20
33e0121c:	25c03000 	strbcs	r3, [r0]
33e01220:	e2800001 	add	r0, r0, #1	; 0x1
33e01224:	e1500002 	cmp	r0, r2
33e01228:	1afffff9 	bne	33e01214 <vsnprintf+0x6a0>
33e0122c:	e1a07000 	mov	r7, r0
33e01230:	e3a0c000 	mov	ip, #0	; 0x0
33e01234:	eaffff6e 	b	33e00ff4 <vsnprintf+0x480>
33e01238:	e1550008 	cmp	r5, r8
33e0123c:	e2451001 	sub	r1, r5, #1	; 0x1
33e01240:	d1a00007 	movle	r0, r7
33e01244:	daffffa9 	ble	33e010f0 <vsnprintf+0x57c>
33e01248:	e1a02003 	mov	r2, r3
33e0124c:	e0873002 	add	r3, r7, r2
33e01250:	e1590003 	cmp	r9, r3
33e01254:	23a0c020 	movcs	ip, #32	; 0x20
33e01258:	27c7c002 	strbcs	ip, [r7, r2]
33e0125c:	e2822001 	add	r2, r2, #1	; 0x1
33e01260:	e0623005 	rsb	r3, r2, r5
33e01264:	e1530008 	cmp	r3, r8
33e01268:	cafffff7 	bgt	33e0124c <vsnprintf+0x6d8>
33e0126c:	e2653001 	rsb	r3, r5, #1	; 0x1
33e01270:	e2411001 	sub	r1, r1, #1	; 0x1
33e01274:	e0883003 	add	r3, r8, r3
33e01278:	e0682005 	rsb	r2, r8, r5
33e0127c:	e0870002 	add	r0, r7, r2
33e01280:	e0811003 	add	r1, r1, r3
33e01284:	eaffff99 	b	33e010f0 <vsnprintf+0x57c>
33e01288:	e59d1014 	ldr	r1, [sp, #20]
33e0128c:	e59a2000 	ldr	r2, [sl]
33e01290:	e0613007 	rsb	r3, r1, r7
33e01294:	e5823000 	str	r3, [r2]
33e01298:	e1a00007 	mov	r0, r7
33e0129c:	e28aa004 	add	sl, sl, #4	; 0x4
33e012a0:	eafffe4c 	b	33e00bd8 <vsnprintf+0x64>
33e012a4:	e59d0014 	ldr	r0, [sp, #20]
33e012a8:	e59a2000 	ldr	r2, [sl]
33e012ac:	e0603007 	rsb	r3, r0, r7
33e012b0:	e5823000 	str	r3, [r2]
33e012b4:	e1a00007 	mov	r0, r7
33e012b8:	e28aa004 	add	sl, sl, #4	; 0x4
33e012bc:	eafffe45 	b	33e00bd8 <vsnprintf+0x64>
33e012c0:	e3a08000 	mov	r8, #0	; 0x0
33e012c4:	eaffff85 	b	33e010e0 <vsnprintf+0x56c>
33e012c8:	33e02368 	.word	0x33e02368
33e012cc:	33e02554 	.word	0x33e02554

33e012d0 <do_getc>:
33e012d0:	e92d47f0 	push	{r4, r5, r6, r7, r8, r9, sl, lr}
33e012d4:	e59fa0b4 	ldr	sl, [pc, #180]	; 33e01390 <do_getc+0xc0>
33e012d8:	e3a03000 	mov	r3, #0	; 0x0
33e012dc:	e3a054e2 	mov	r5, #-503316480	; 0xe2000000
33e012e0:	e58a3000 	str	r3, [sl]
33e012e4:	e1a04001 	mov	r4, r1
33e012e8:	e1a06000 	mov	r6, r0
33e012ec:	e1a08002 	mov	r8, r2
33e012f0:	e0517003 	subs	r7, r1, r3
33e012f4:	13a07001 	movne	r7, #1	; 0x1
33e012f8:	e2855609 	add	r5, r5, #9437184	; 0x900000
33e012fc:	e5953010 	ldr	r3, [r5, #16]
33e01300:	e3a0c4e2 	mov	ip, #-503316480	; 0xe2000000
33e01304:	e3130001 	tst	r3, #1	; 0x1
33e01308:	e28cc609 	add	ip, ip, #9437184	; 0x900000
33e0130c:	1a00000d 	bne	33e01348 <do_getc+0x78>
33e01310:	e3570000 	cmp	r7, #0	; 0x0
33e01314:	0a000002 	beq	33e01324 <do_getc+0x54>
33e01318:	e3540000 	cmp	r4, #0	; 0x0
33e0131c:	e2444001 	sub	r4, r4, #1	; 0x1
33e01320:	0a000014 	beq	33e01378 <do_getc+0xa8>
33e01324:	e3560000 	cmp	r6, #0	; 0x0
33e01328:	0afffff3 	beq	33e012fc <do_getc+0x2c>
33e0132c:	e1a0e00f 	mov	lr, pc
33e01330:	e12fff16 	bx	r6
33e01334:	e5953010 	ldr	r3, [r5, #16]
33e01338:	e3a0c4e2 	mov	ip, #-503316480	; 0xe2000000
33e0133c:	e3130001 	tst	r3, #1	; 0x1
33e01340:	e28cc609 	add	ip, ip, #9437184	; 0x900000
33e01344:	0afffff1 	beq	33e01310 <do_getc+0x40>
33e01348:	e3540000 	cmp	r4, #0	; 0x0
33e0134c:	13a03000 	movne	r3, #0	; 0x0
33e01350:	02073001 	andeq	r3, r7, #1	; 0x1
33e01354:	e3530000 	cmp	r3, #0	; 0x0
33e01358:	1a000006 	bne	33e01378 <do_getc+0xa8>
33e0135c:	e5dc2024 	ldrb	r2, [ip, #36]
33e01360:	e59c3014 	ldr	r3, [ip, #20]
33e01364:	e213300f 	ands	r3, r3, #15	; 0xf
33e01368:	e20200ff 	and	r0, r2, #255	; 0xff
33e0136c:	1a000003 	bne	33e01380 <do_getc+0xb0>
33e01370:	e8bd47f0 	pop	{r4, r5, r6, r7, r8, r9, sl, lr}
33e01374:	e12fff1e 	bx	lr
33e01378:	e3a00000 	mov	r0, #0	; 0x0
33e0137c:	e3a030ff 	mov	r3, #255	; 0xff
33e01380:	e3580000 	cmp	r8, #0	; 0x0
33e01384:	e58a3000 	str	r3, [sl]
33e01388:	15883000 	strne	r3, [r8]
33e0138c:	eafffff7 	b	33e01370 <do_getc+0xa0>
33e01390:	33e025d8 	.word	0x33e025d8

33e01394 <waitkey>:
33e01394:	e1a02001 	mov	r2, r1
33e01398:	e1a01000 	mov	r1, r0
33e0139c:	e3a00000 	mov	r0, #0	; 0x0
33e013a0:	eaffffca 	b	33e012d0 <do_getc>

33e013a4 <parseargs>:
33e013a4:	e5d0c000 	ldrb	ip, [r0]
33e013a8:	e35c0000 	cmp	ip, #0	; 0x0
33e013ac:	e92d01f0 	push	{r4, r5, r6, r7, r8}
33e013b0:	e1a05002 	mov	r5, r2
33e013b4:	e1a07001 	mov	r7, r1
33e013b8:	e1a08003 	mov	r8, r3
33e013bc:	01a0400c 	moveq	r4, ip
33e013c0:	01a02000 	moveq	r2, r0
33e013c4:	0a000011 	beq	33e01410 <parseargs+0x6c>
33e013c8:	e3a03000 	mov	r3, #0	; 0x0
33e013cc:	e59f60e0 	ldr	r6, [pc, #224]	; 33e014b4 <parseargs+0x110>
33e013d0:	e1a04003 	mov	r4, r3
33e013d4:	e35c003b 	cmp	ip, #59	; 0x3b
33e013d8:	13a02000 	movne	r2, #0	; 0x0
33e013dc:	03a02001 	moveq	r2, #1	; 0x1
33e013e0:	e3530002 	cmp	r3, #2	; 0x2
33e013e4:	03a02000 	moveq	r2, #0	; 0x0
33e013e8:	e3520000 	cmp	r2, #0	; 0x0
33e013ec:	0a000013 	beq	33e01440 <parseargs+0x9c>
33e013f0:	e3530003 	cmp	r3, #3	; 0x3
33e013f4:	1a000003 	bne	33e01408 <parseargs+0x64>
33e013f8:	e5963000 	ldr	r3, [r6]
33e013fc:	e5f0c001 	ldrb	ip, [r0, #1]!
33e01400:	e35c0000 	cmp	ip, #0	; 0x0
33e01404:	1afffff2 	bne	33e013d4 <parseargs+0x30>
33e01408:	e1a0c104 	lsl	ip, r4, #2
33e0140c:	e1a02000 	mov	r2, r0
33e01410:	e3570000 	cmp	r7, #0	; 0x0
33e01414:	e3a03000 	mov	r3, #0	; 0x0
33e01418:	e785300c 	str	r3, [r5, ip]
33e0141c:	15874000 	strne	r4, [r7]
33e01420:	e5d03000 	ldrb	r3, [r0]
33e01424:	e353003b 	cmp	r3, #59	; 0x3b
33e01428:	01a02000 	moveq	r2, r0
33e0142c:	0243303b 	subeq	r3, r3, #59	; 0x3b
33e01430:	04c23001 	strbeq	r3, [r2], #1
33e01434:	e5882000 	str	r2, [r8]
33e01438:	e8bd01f0 	pop	{r4, r5, r6, r7, r8}
33e0143c:	e12fff1e 	bx	lr
33e01440:	e3530003 	cmp	r3, #3	; 0x3
33e01444:	0affffeb 	beq	33e013f8 <parseargs+0x54>
33e01448:	e3530002 	cmp	r3, #2	; 0x2
33e0144c:	0a000013 	beq	33e014a0 <parseargs+0xfc>
33e01450:	e35c0009 	cmp	ip, #9	; 0x9
33e01454:	135c0020 	cmpne	ip, #32	; 0x20
33e01458:	13a01000 	movne	r1, #0	; 0x0
33e0145c:	03a01001 	moveq	r1, #1	; 0x1
33e01460:	0a000010 	beq	33e014a8 <parseargs+0x104>
33e01464:	e35c0022 	cmp	ip, #34	; 0x22
33e01468:	04c01001 	strbeq	r1, [r0], #1
33e0146c:	03a03002 	moveq	r3, #2	; 0x2
33e01470:	07850104 	streq	r0, [r5, r4, lsl #2]
33e01474:	02844001 	addeq	r4, r4, #1	; 0x1
33e01478:	0affffdf 	beq	33e013fc <parseargs+0x58>
33e0147c:	e35c005c 	cmp	ip, #92	; 0x5c
33e01480:	05863000 	streq	r3, [r6]
33e01484:	03a03003 	moveq	r3, #3	; 0x3
33e01488:	0affffdb 	beq	33e013fc <parseargs+0x58>
33e0148c:	e3530000 	cmp	r3, #0	; 0x0
33e01490:	07850104 	streq	r0, [r5, r4, lsl #2]
33e01494:	e3a03001 	mov	r3, #1	; 0x1
33e01498:	02844001 	addeq	r4, r4, #1	; 0x1
33e0149c:	eaffffd6 	b	33e013fc <parseargs+0x58>
33e014a0:	e35c0022 	cmp	ip, #34	; 0x22
33e014a4:	1affffd4 	bne	33e013fc <parseargs+0x58>
33e014a8:	e5c02000 	strb	r2, [r0]
33e014ac:	e1a03002 	mov	r3, r2
33e014b0:	eaffffd1 	b	33e013fc <parseargs+0x58>
33e014b4:	33e029dc 	.word	0x33e029dc

33e014b8 <simple_strtoul>:
33e014b8:	e92d00f0 	push	{r4, r5, r6, r7}
33e014bc:	e5d03000 	ldrb	r3, [r0]
33e014c0:	e3530030 	cmp	r3, #48	; 0x30
33e014c4:	e1a05000 	mov	r5, r0
33e014c8:	e1a07001 	mov	r7, r1
33e014cc:	e1a04002 	mov	r4, r2
33e014d0:	e1a0c003 	mov	ip, r3
33e014d4:	0a00001e 	beq	33e01554 <simple_strtoul+0x9c>
33e014d8:	e3520000 	cmp	r2, #0	; 0x0
33e014dc:	1a000030 	bne	33e015a4 <simple_strtoul+0xec>
33e014e0:	e59f60f4 	ldr	r6, [pc, #244]	; 33e015dc <simple_strtoul+0x124>
33e014e4:	e7d62003 	ldrb	r2, [r6, r3]
33e014e8:	e1a01003 	mov	r1, r3
33e014ec:	e2020044 	and	r0, r2, #68	; 0x44
33e014f0:	e284400a 	add	r4, r4, #10	; 0xa
33e014f4:	e3500000 	cmp	r0, #0	; 0x0
33e014f8:	13a00000 	movne	r0, #0	; 0x0
33e014fc:	1a000006 	bne	33e0151c <simple_strtoul+0x64>
33e01500:	ea00000f 	b	33e01544 <simple_strtoul+0x8c>
33e01504:	e5f5c001 	ldrb	ip, [r5, #1]!
33e01508:	e7d6200c 	ldrb	r2, [r6, ip]
33e0150c:	e3120044 	tst	r2, #68	; 0x44
33e01510:	e0203094 	mla	r0, r4, r0, r3
33e01514:	e1a0100c 	mov	r1, ip
33e01518:	0a000009 	beq	33e01544 <simple_strtoul+0x8c>
33e0151c:	e3120004 	tst	r2, #4	; 0x4
33e01520:	12413030 	subne	r3, r1, #48	; 0x30
33e01524:	1a000004 	bne	33e0153c <simple_strtoul+0x84>
33e01528:	e24c3020 	sub	r3, ip, #32	; 0x20
33e0152c:	e3120002 	tst	r2, #2	; 0x2
33e01530:	e20330ff 	and	r3, r3, #255	; 0xff
33e01534:	12433037 	subne	r3, r3, #55	; 0x37
33e01538:	02413037 	subeq	r3, r1, #55	; 0x37
33e0153c:	e1530004 	cmp	r3, r4
33e01540:	3affffef 	bcc	33e01504 <simple_strtoul+0x4c>
33e01544:	e3570000 	cmp	r7, #0	; 0x0
33e01548:	15875000 	strne	r5, [r7]
33e0154c:	e8bd00f0 	pop	{r4, r5, r6, r7}
33e01550:	e12fff1e 	bx	lr
33e01554:	e5f53001 	ldrb	r3, [r5, #1]!
33e01558:	e3530078 	cmp	r3, #120	; 0x78
33e0155c:	159f6078 	ldrne	r6, [pc, #120]	; 33e015dc <simple_strtoul+0x124>
33e01560:	0a000015 	beq	33e015bc <simple_strtoul+0x104>
33e01564:	e3540000 	cmp	r4, #0	; 0x0
33e01568:	1a000005 	bne	33e01584 <simple_strtoul+0xcc>
33e0156c:	e7d62003 	ldrb	r2, [r6, r3]
33e01570:	e1a01003 	mov	r1, r3
33e01574:	e2020044 	and	r0, r2, #68	; 0x44
33e01578:	e3a04008 	mov	r4, #8	; 0x8
33e0157c:	e1a0c003 	mov	ip, r3
33e01580:	eaffffdb 	b	33e014f4 <simple_strtoul+0x3c>
33e01584:	e7d62003 	ldrb	r2, [r6, r3]
33e01588:	e1a01003 	mov	r1, r3
33e0158c:	e1a0c005 	mov	ip, r5
33e01590:	e2020044 	and	r0, r2, #68	; 0x44
33e01594:	e5dc3000 	ldrb	r3, [ip]
33e01598:	e1a0500c 	mov	r5, ip
33e0159c:	e1a0c003 	mov	ip, r3
33e015a0:	eaffffd3 	b	33e014f4 <simple_strtoul+0x3c>
33e015a4:	e59f6030 	ldr	r6, [pc, #48]	; 33e015dc <simple_strtoul+0x124>
33e015a8:	e7d62003 	ldrb	r2, [r6, r3]
33e015ac:	e1a01003 	mov	r1, r3
33e015b0:	e2020044 	and	r0, r2, #68	; 0x44
33e015b4:	e1a0c003 	mov	ip, r3
33e015b8:	eaffffcd 	b	33e014f4 <simple_strtoul+0x3c>
33e015bc:	e5d51001 	ldrb	r1, [r5, #1]
33e015c0:	e59f6014 	ldr	r6, [pc, #20]	; 33e015dc <simple_strtoul+0x124>
33e015c4:	e7d62001 	ldrb	r2, [r6, r1]
33e015c8:	e2120044 	ands	r0, r2, #68	; 0x44
33e015cc:	e285c001 	add	ip, r5, #1	; 0x1
33e015d0:	13a04010 	movne	r4, #16	; 0x10
33e015d4:	1affffee 	bne	33e01594 <simple_strtoul+0xdc>
33e015d8:	eaffffe1 	b	33e01564 <simple_strtoul+0xac>
33e015dc:	33e02368 	.word	0x33e02368

33e015e0 <raise>:
33e015e0:	e3a00000 	mov	r0, #0	; 0x0
33e015e4:	e12fff1e 	bx	lr

33e015e8 <printf>:
33e015e8:	e92d000f 	push	{r0, r1, r2, r3}
33e015ec:	e52de004 	push	{lr}		; (str lr, [sp, #-4]!)
33e015f0:	e24dd00c 	sub	sp, sp, #12	; 0xc
33e015f4:	e28dc014 	add	ip, sp, #20	; 0x14
33e015f8:	e1a0300c 	mov	r3, ip
33e015fc:	e3a01b01 	mov	r1, #1024	; 0x400
33e01600:	e59d2010 	ldr	r2, [sp, #16]
33e01604:	e59f0058 	ldr	r0, [pc, #88]	; 33e01664 <printf+0x7c>
33e01608:	e58dc004 	str	ip, [sp, #4]
33e0160c:	ebfffd58 	bl	33e00b74 <vsnprintf>
33e01610:	e59fc050 	ldr	ip, [pc, #80]	; 33e01668 <printf+0x80>
33e01614:	e55c1001 	ldrb	r1, [ip, #-1]
33e01618:	e3a024e2 	mov	r2, #-503316480	; 0xe2000000
33e0161c:	e3510000 	cmp	r1, #0	; 0x0
33e01620:	e2822609 	add	r2, r2, #9437184	; 0x900000
33e01624:	0a00000a 	beq	33e01654 <printf+0x6c>
33e01628:	e5923010 	ldr	r3, [r2, #16]
33e0162c:	e3130004 	tst	r3, #4	; 0x4
33e01630:	0afffffc 	beq	33e01628 <printf+0x40>
33e01634:	e351000a 	cmp	r1, #10	; 0xa
33e01638:	e5c21020 	strb	r1, [r2, #32]
33e0163c:	03a0100d 	moveq	r1, #13	; 0xd
33e01640:	0afffff8 	beq	33e01628 <printf+0x40>
33e01644:	e28cc001 	add	ip, ip, #1	; 0x1
33e01648:	e55c1001 	ldrb	r1, [ip, #-1]
33e0164c:	e3510000 	cmp	r1, #0	; 0x0
33e01650:	1afffff4 	bne	33e01628 <printf+0x40>
33e01654:	e28dd00c 	add	sp, sp, #12	; 0xc
33e01658:	e49de004 	pop	{lr}		; (ldr lr, [sp], #4)
33e0165c:	e28dd010 	add	sp, sp, #16	; 0x10
33e01660:	e12fff1e 	bx	lr
33e01664:	33e025dc 	.word	0x33e025dc
33e01668:	33e025dd 	.word	0x33e025dd

33e0166c <getcmd>:
33e0166c:	e92d4070 	push	{r4, r5, r6, lr}
33e01670:	e3a0203c 	mov	r2, #60	; 0x3c
33e01674:	e3a01000 	mov	r1, #0	; 0x0
33e01678:	e1a04000 	mov	r4, r0
33e0167c:	eb000223 	bl	33e01f10 <memset>
33e01680:	e3a024e2 	mov	r2, #-503316480	; 0xe2000000
33e01684:	e2822609 	add	r2, r2, #9437184	; 0x900000
33e01688:	e3a00000 	mov	r0, #0	; 0x0
33e0168c:	e1a0c002 	mov	ip, r2
33e01690:	e1a0e000 	mov	lr, r0
33e01694:	e3a05008 	mov	r5, #8	; 0x8
33e01698:	e3a06020 	mov	r6, #32	; 0x20
33e0169c:	e5923010 	ldr	r3, [r2, #16]
33e016a0:	e3130001 	tst	r3, #1	; 0x1
33e016a4:	0afffffc 	beq	33e0169c <getcmd+0x30>
33e016a8:	e5d23024 	ldrb	r3, [r2, #36]
33e016ac:	e20310ff 	and	r1, r3, #255	; 0xff
33e016b0:	e351000a 	cmp	r1, #10	; 0xa
33e016b4:	0a00002a 	beq	33e01764 <getcmd+0xf8>
33e016b8:	8a000024 	bhi	33e01750 <getcmd+0xe4>
33e016bc:	e3510000 	cmp	r1, #0	; 0x0
33e016c0:	0a000027 	beq	33e01764 <getcmd+0xf8>
33e016c4:	e2413006 	sub	r3, r1, #6	; 0x6
33e016c8:	e3530002 	cmp	r3, #2	; 0x2
33e016cc:	9a00000e 	bls	33e0170c <getcmd+0xa0>
33e016d0:	e350003b 	cmp	r0, #59	; 0x3b
33e016d4:	cafffff0 	bgt	33e0169c <getcmd+0x30>
33e016d8:	e7c41000 	strb	r1, [r4, r0]
33e016dc:	e5923010 	ldr	r3, [r2, #16]
33e016e0:	e3130004 	tst	r3, #4	; 0x4
33e016e4:	0afffffc 	beq	33e016dc <getcmd+0x70>
33e016e8:	e351000a 	cmp	r1, #10	; 0xa
33e016ec:	e5c21020 	strb	r1, [r2, #32]
33e016f0:	e3a0100d 	mov	r1, #13	; 0xd
33e016f4:	0afffff8 	beq	33e016dc <getcmd+0x70>
33e016f8:	e2800001 	add	r0, r0, #1	; 0x1
33e016fc:	eaffffe6 	b	33e0169c <getcmd+0x30>
33e01700:	e241307e 	sub	r3, r1, #126	; 0x7e
33e01704:	e3530001 	cmp	r3, #1	; 0x1
33e01708:	8afffff0 	bhi	33e016d0 <getcmd+0x64>
33e0170c:	e3500000 	cmp	r0, #0	; 0x0
33e01710:	12400001 	subne	r0, r0, #1	; 0x1
33e01714:	0a00000b 	beq	33e01748 <getcmd+0xdc>
33e01718:	e5923010 	ldr	r3, [r2, #16]
33e0171c:	e3130004 	tst	r3, #4	; 0x4
33e01720:	0afffffc 	beq	33e01718 <getcmd+0xac>
33e01724:	e5cc5020 	strb	r5, [ip, #32]
33e01728:	e5923010 	ldr	r3, [r2, #16]
33e0172c:	e3130004 	tst	r3, #4	; 0x4
33e01730:	0afffffc 	beq	33e01728 <getcmd+0xbc>
33e01734:	e5cc6020 	strb	r6, [ip, #32]
33e01738:	e5923010 	ldr	r3, [r2, #16]
33e0173c:	e3130004 	tst	r3, #4	; 0x4
33e01740:	0afffffc 	beq	33e01738 <getcmd+0xcc>
33e01744:	e5cc5020 	strb	r5, [ip, #32]
33e01748:	e7c4e000 	strb	lr, [r4, r0]
33e0174c:	eaffffd2 	b	33e0169c <getcmd+0x30>
33e01750:	e3510018 	cmp	r1, #24	; 0x18
33e01754:	0a000016 	beq	33e017b4 <getcmd+0x148>
33e01758:	8affffe8 	bhi	33e01700 <getcmd+0x94>
33e0175c:	e351000d 	cmp	r1, #13	; 0xd
33e01760:	1affffda 	bne	33e016d0 <getcmd+0x64>
33e01764:	e3a014e2 	mov	r1, #-503316480	; 0xe2000000
33e01768:	e2811609 	add	r1, r1, #9437184	; 0x900000
33e0176c:	e5913010 	ldr	r3, [r1, #16]
33e01770:	e3a024e2 	mov	r2, #-503316480	; 0xe2000000
33e01774:	e3130004 	tst	r3, #4	; 0x4
33e01778:	e2822609 	add	r2, r2, #9437184	; 0x900000
33e0177c:	0afffffa 	beq	33e0176c <getcmd+0x100>
33e01780:	e3a0300d 	mov	r3, #13	; 0xd
33e01784:	e5c23020 	strb	r3, [r2, #32]
33e01788:	e1a01002 	mov	r1, r2
33e0178c:	e3a0200a 	mov	r2, #10	; 0xa
33e01790:	e5913010 	ldr	r3, [r1, #16]
33e01794:	e3130004 	tst	r3, #4	; 0x4
33e01798:	0afffffc 	beq	33e01790 <getcmd+0x124>
33e0179c:	e352000a 	cmp	r2, #10	; 0xa
33e017a0:	e5c12020 	strb	r2, [r1, #32]
33e017a4:	e3a0200d 	mov	r2, #13	; 0xd
33e017a8:	0afffff8 	beq	33e01790 <getcmd+0x124>
33e017ac:	e8bd4070 	pop	{r4, r5, r6, lr}
33e017b0:	e12fff1e 	bx	lr
33e017b4:	e3a00000 	mov	r0, #0	; 0x0
33e017b8:	eaffffb7 	b	33e0169c <getcmd+0x30>

33e017bc <putstr>:
33e017bc:	e92d4010 	push	{r4, lr}
33e017c0:	e1a04000 	mov	r4, r0
33e017c4:	eb000171 	bl	33e01d90 <strlen>
33e017c8:	e3540000 	cmp	r4, #0	; 0x0
33e017cc:	0a000013 	beq	33e01820 <putstr+0x64>
33e017d0:	e250c000 	subs	ip, r0, #0	; 0x0
33e017d4:	0a000011 	beq	33e01820 <putstr+0x64>
33e017d8:	e5d41000 	ldrb	r1, [r4]
33e017dc:	e3510000 	cmp	r1, #0	; 0x0
33e017e0:	0a00000e 	beq	33e01820 <putstr+0x64>
33e017e4:	e3a024e2 	mov	r2, #-503316480	; 0xe2000000
33e017e8:	e1a00004 	mov	r0, r4
33e017ec:	e2822609 	add	r2, r2, #9437184	; 0x900000
33e017f0:	e5923010 	ldr	r3, [r2, #16]
33e017f4:	e3130004 	tst	r3, #4	; 0x4
33e017f8:	0afffffc 	beq	33e017f0 <putstr+0x34>
33e017fc:	e351000a 	cmp	r1, #10	; 0xa
33e01800:	e5c21020 	strb	r1, [r2, #32]
33e01804:	e3a0100d 	mov	r1, #13	; 0xd
33e01808:	0afffff8 	beq	33e017f0 <putstr+0x34>
33e0180c:	e25cc001 	subs	ip, ip, #1	; 0x1
33e01810:	0a000002 	beq	33e01820 <putstr+0x64>
33e01814:	e5f01001 	ldrb	r1, [r0, #1]!
33e01818:	e3510000 	cmp	r1, #0	; 0x0
33e0181c:	1afffff3 	bne	33e017f0 <putstr+0x34>
33e01820:	e8bd4010 	pop	{r4, lr}
33e01824:	e12fff1e 	bx	lr

33e01828 <execcmd>:
33e01828:	e92d41f0 	push	{r4, r5, r6, r7, r8, lr}
33e0182c:	e5914000 	ldr	r4, [r1]
33e01830:	e1a06000 	mov	r6, r0
33e01834:	e1a00004 	mov	r0, r4
33e01838:	e1a07001 	mov	r7, r1
33e0183c:	eb000153 	bl	33e01d90 <strlen>
33e01840:	e1a05000 	mov	r5, r0
33e01844:	e1a01004 	mov	r1, r4
33e01848:	e59f011c 	ldr	r0, [pc, #284]	; 33e0196c <execcmd+0x144>
33e0184c:	e1a02005 	mov	r2, r5
33e01850:	eb000166 	bl	33e01df0 <strncmp>
33e01854:	e3500000 	cmp	r0, #0	; 0x0
33e01858:	0a000027 	beq	33e018fc <execcmd+0xd4>
33e0185c:	e59f010c 	ldr	r0, [pc, #268]	; 33e01970 <execcmd+0x148>
33e01860:	e1a01004 	mov	r1, r4
33e01864:	e1a02005 	mov	r2, r5
33e01868:	eb000160 	bl	33e01df0 <strncmp>
33e0186c:	e3500000 	cmp	r0, #0	; 0x0
33e01870:	0a000018 	beq	33e018d8 <execcmd+0xb0>
33e01874:	e59f00f8 	ldr	r0, [pc, #248]	; 33e01974 <execcmd+0x14c>
33e01878:	e1a01004 	mov	r1, r4
33e0187c:	e1a02005 	mov	r2, r5
33e01880:	eb00015a 	bl	33e01df0 <strncmp>
33e01884:	e3500000 	cmp	r0, #0	; 0x0
33e01888:	03560002 	cmpeq	r6, #2	; 0x2
33e0188c:	13a08000 	movne	r8, #0	; 0x0
33e01890:	03a08001 	moveq	r8, #1	; 0x1
33e01894:	0a00001a 	beq	33e01904 <execcmd+0xdc>
33e01898:	e59f00d8 	ldr	r0, [pc, #216]	; 33e01978 <execcmd+0x150>
33e0189c:	e1a01004 	mov	r1, r4
33e018a0:	e1a02005 	mov	r2, r5
33e018a4:	eb000151 	bl	33e01df0 <strncmp>
33e018a8:	e3500000 	cmp	r0, #0	; 0x0
33e018ac:	03560003 	cmpeq	r6, #3	; 0x3
33e018b0:	0a00001b 	beq	33e01924 <execcmd+0xfc>
33e018b4:	e1a01004 	mov	r1, r4
33e018b8:	e1a02005 	mov	r2, r5
33e018bc:	e59f00b8 	ldr	r0, [pc, #184]	; 33e0197c <execcmd+0x154>
33e018c0:	eb00014a 	bl	33e01df0 <strncmp>
33e018c4:	e3500000 	cmp	r0, #0	; 0x0
33e018c8:	0a000024 	beq	33e01960 <execcmd+0x138>
33e018cc:	e59f00ac 	ldr	r0, [pc, #172]	; 33e01980 <execcmd+0x158>
33e018d0:	e8bd41f0 	pop	{r4, r5, r6, r7, r8, lr}
33e018d4:	eaffffb8 	b	33e017bc <putstr>
33e018d8:	e59f00a4 	ldr	r0, [pc, #164]	; 33e01984 <execcmd+0x15c>
33e018dc:	ebffffb6 	bl	33e017bc <putstr>
33e018e0:	e3a0320e 	mov	r3, #-536870912	; 0xe0000000
33e018e4:	e2833601 	add	r3, r3, #1048576	; 0x100000
33e018e8:	e2833a02 	add	r3, r3, #8192	; 0x2000
33e018ec:	e3a02001 	mov	r2, #1	; 0x1
33e018f0:	e5832000 	str	r2, [r3]
33e018f4:	e8bd41f0 	pop	{r4, r5, r6, r7, r8, lr}
33e018f8:	e12fff1e 	bx	lr
33e018fc:	ebfffb62 	bl	33e0068c <my_boot>
33e01900:	eafffffb 	b	33e018f4 <execcmd+0xcc>
33e01904:	e5970004 	ldr	r0, [r7, #4]
33e01908:	e3a01000 	mov	r1, #0	; 0x0
33e0190c:	e3a02010 	mov	r2, #16	; 0x10
33e01910:	ebfffee8 	bl	33e014b8 <simple_strtoul>
33e01914:	e5901000 	ldr	r1, [r0]
33e01918:	e59f0068 	ldr	r0, [pc, #104]	; 33e01988 <execcmd+0x160>
33e0191c:	e8bd41f0 	pop	{r4, r5, r6, r7, r8, lr}
33e01920:	eaffff30 	b	33e015e8 <printf>
33e01924:	e1a01008 	mov	r1, r8
33e01928:	e3a02010 	mov	r2, #16	; 0x10
33e0192c:	e5970004 	ldr	r0, [r7, #4]
33e01930:	ebfffee0 	bl	33e014b8 <simple_strtoul>
33e01934:	e1a01008 	mov	r1, r8
33e01938:	e1a04000 	mov	r4, r0
33e0193c:	e3a02010 	mov	r2, #16	; 0x10
33e01940:	e5970008 	ldr	r0, [r7, #8]
33e01944:	ebfffedb 	bl	33e014b8 <simple_strtoul>
33e01948:	e1a01000 	mov	r1, r0
33e0194c:	e5840000 	str	r0, [r4]
33e01950:	e59f0034 	ldr	r0, [pc, #52]	; 33e0198c <execcmd+0x164>
33e01954:	e1a02001 	mov	r2, r1
33e01958:	e8bd41f0 	pop	{r4, r5, r6, r7, r8, lr}
33e0195c:	eaffff21 	b	33e015e8 <printf>
33e01960:	e59f0028 	ldr	r0, [pc, #40]	; 33e01990 <execcmd+0x168>
33e01964:	e8bd41f0 	pop	{r4, r5, r6, r7, r8, lr}
33e01968:	eaffff93 	b	33e017bc <putstr>
33e0196c:	33e0255c 	.word	0x33e0255c
33e01970:	33e02564 	.word	0x33e02564
33e01974:	33e0257c 	.word	0x33e0257c
33e01978:	33e02590 	.word	0x33e02590
33e0197c:	33e025a8 	.word	0x33e025a8
33e01980:	33e025b8 	.word	0x33e025b8
33e01984:	33e0256c 	.word	0x33e0256c
33e01988:	33e02580 	.word	0x33e02580
33e0198c:	33e02594 	.word	0x33e02594
33e01990:	33e025b0 	.word	0x33e025b0

33e01994 <exec_string>:
33e01994:	e92d40f0 	push	{r4, r5, r6, r7, lr}
33e01998:	e5d03000 	ldrb	r3, [r0]
33e0199c:	e3530000 	cmp	r3, #0	; 0x0
33e019a0:	e24ddf83 	sub	sp, sp, #524	; 0x20c
33e019a4:	e1a04000 	mov	r4, r0
33e019a8:	0a000013 	beq	33e019fc <exec_string+0x68>
33e019ac:	e1a0500d 	mov	r5, sp
33e019b0:	e28d7f81 	add	r7, sp, #516	; 0x204
33e019b4:	e28d6c02 	add	r6, sp, #512	; 0x200
33e019b8:	e3a01000 	mov	r1, #0	; 0x0
33e019bc:	e3a02c02 	mov	r2, #512	; 0x200
33e019c0:	e1a0000d 	mov	r0, sp
33e019c4:	eb000151 	bl	33e01f10 <memset>
33e019c8:	e1a00004 	mov	r0, r4
33e019cc:	e1a01007 	mov	r1, r7
33e019d0:	e1a0200d 	mov	r2, sp
33e019d4:	e1a03006 	mov	r3, r6
33e019d8:	ebfffe71 	bl	33e013a4 <parseargs>
33e019dc:	e59d0204 	ldr	r0, [sp, #516]
33e019e0:	e3500000 	cmp	r0, #0	; 0x0
33e019e4:	e1a0100d 	mov	r1, sp
33e019e8:	cbffff8e 	blgt	33e01828 <execcmd>
33e019ec:	e59d4200 	ldr	r4, [sp, #512]
33e019f0:	e5d43000 	ldrb	r3, [r4]
33e019f4:	e3530000 	cmp	r3, #0	; 0x0
33e019f8:	1affffee 	bne	33e019b8 <exec_string+0x24>
33e019fc:	e28ddf83 	add	sp, sp, #524	; 0x20c
33e01a00:	e8bd40f0 	pop	{r4, r5, r6, r7, lr}
33e01a04:	e12fff1e 	bx	lr

33e01a08 <serial_term>:
33e01a08:	e92d4010 	push	{r4, lr}
33e01a0c:	e24dd040 	sub	sp, sp, #64	; 0x40
33e01a10:	e28d4004 	add	r4, sp, #4	; 0x4
33e01a14:	e59f0024 	ldr	r0, [pc, #36]	; 33e01a40 <serial_term+0x38>
33e01a18:	ebffff67 	bl	33e017bc <putstr>
33e01a1c:	e1a00004 	mov	r0, r4
33e01a20:	e3a0103c 	mov	r1, #60	; 0x3c
33e01a24:	ebffff10 	bl	33e0166c <getcmd>
33e01a28:	e5dd3004 	ldrb	r3, [sp, #4]
33e01a2c:	e3530000 	cmp	r3, #0	; 0x0
33e01a30:	0afffff7 	beq	33e01a14 <serial_term+0xc>
33e01a34:	e1a00004 	mov	r0, r4
33e01a38:	ebffffd5 	bl	33e01994 <exec_string>
33e01a3c:	eafffff4 	b	33e01a14 <serial_term+0xc>
33e01a40:	33e025cc 	.word	0x33e025cc

33e01a44 <nand_isbad>:
33e01a44:	e52d4004 	push	{r4}		; (str r4, [sp, #-4]!)
33e01a48:	e2504000 	subs	r4, r0, #0	; 0x0
33e01a4c:	e24dd00c 	sub	sp, sp, #12	; 0xc
33e01a50:	01a00004 	moveq	r0, r4
33e01a54:	0a000023 	beq	33e01ae8 <nand_isbad+0xa4>
33e01a58:	e3a0220b 	mov	r2, #-1342177280	; 0xb0000000
33e01a5c:	e282260e 	add	r2, r2, #14680064	; 0xe00000
33e01a60:	e5923004 	ldr	r3, [r2, #4]
33e01a64:	e3c33002 	bic	r3, r3, #2	; 0x2
33e01a68:	e5823004 	str	r3, [r2, #4]
33e01a6c:	e1a0c824 	lsr	ip, r4, #16
33e01a70:	e1a00424 	lsr	r0, r4, #8
33e01a74:	e3a01000 	mov	r1, #0	; 0x0
33e01a78:	e3a03008 	mov	r3, #8	; 0x8
33e01a7c:	e5821008 	str	r1, [r2, #8]
33e01a80:	e20000ff 	and	r0, r0, #255	; 0xff
33e01a84:	e582100c 	str	r1, [r2, #12]
33e01a88:	e20cc0ff 	and	ip, ip, #255	; 0xff
33e01a8c:	e582300c 	str	r3, [r2, #12]
33e01a90:	e20440ff 	and	r4, r4, #255	; 0xff
33e01a94:	e2833028 	add	r3, r3, #40	; 0x28
33e01a98:	e582400c 	str	r4, [r2, #12]
33e01a9c:	e582000c 	str	r0, [r2, #12]
33e01aa0:	e582c00c 	str	ip, [r2, #12]
33e01aa4:	e5823008 	str	r3, [r2, #8]
33e01aa8:	e5923028 	ldr	r3, [r2, #40]
33e01aac:	e3a0120b 	mov	r1, #-1342177280	; 0xb0000000
33e01ab0:	e3130001 	tst	r3, #1	; 0x1
33e01ab4:	e281160e 	add	r1, r1, #14680064	; 0xe00000
33e01ab8:	0afffffa 	beq	33e01aa8 <nand_isbad+0x64>
33e01abc:	e5d13010 	ldrb	r3, [r1, #16]
33e01ac0:	e5cd3006 	strb	r3, [sp, #6]
33e01ac4:	e5d12010 	ldrb	r2, [r1, #16]
33e01ac8:	e5cd2007 	strb	r2, [sp, #7]
33e01acc:	e5913004 	ldr	r3, [r1, #4]
33e01ad0:	e3833002 	orr	r3, r3, #2	; 0x2
33e01ad4:	e5813004 	str	r3, [r1, #4]
33e01ad8:	e5dd2006 	ldrb	r2, [sp, #6]
33e01adc:	e35200ff 	cmp	r2, #255	; 0xff
33e01ae0:	13a00001 	movne	r0, #1	; 0x1
33e01ae4:	0a000002 	beq	33e01af4 <nand_isbad+0xb0>
33e01ae8:	e28dd00c 	add	sp, sp, #12	; 0xc
33e01aec:	e8bd0010 	pop	{r4}
33e01af0:	e12fff1e 	bx	lr
33e01af4:	e5dd3007 	ldrb	r3, [sp, #7]
33e01af8:	e25300ff 	subs	r0, r3, #255	; 0xff
33e01afc:	13a00001 	movne	r0, #1	; 0x1
33e01b00:	eafffff8 	b	33e01ae8 <nand_isbad+0xa4>

33e01b04 <copy_uboot_to_ram>:
33e01b04:	e3a0120b 	mov	r1, #-1342177280	; 0xb0000000
33e01b08:	e281160e 	add	r1, r1, #14680064	; 0xe00000
33e01b0c:	e5913004 	ldr	r3, [r1, #4]
33e01b10:	e3833001 	orr	r3, r3, #1	; 0x1
33e01b14:	e5813004 	str	r3, [r1, #4]
33e01b18:	e92d4ff0 	push	{r4, r5, r6, r7, r8, r9, sl, fp, lr}
33e01b1c:	e5912004 	ldr	r2, [r1, #4]
33e01b20:	e3a00000 	mov	r0, #0	; 0x0
33e01b24:	e3c22002 	bic	r2, r2, #2	; 0x2
33e01b28:	e3a03090 	mov	r3, #144	; 0x90
33e01b2c:	e5812004 	str	r2, [r1, #4]
33e01b30:	e5813008 	str	r3, [r1, #8]
33e01b34:	e581000c 	str	r0, [r1, #12]
33e01b38:	e5d13010 	ldrb	r3, [r1, #16]
33e01b3c:	e24dd00c 	sub	sp, sp, #12	; 0xc
33e01b40:	e20330ff 	and	r3, r3, #255	; 0xff
33e01b44:	e5cd3007 	strb	r3, [sp, #7]
33e01b48:	e5d12010 	ldrb	r2, [r1, #16]
33e01b4c:	e20220ff 	and	r2, r2, #255	; 0xff
33e01b50:	e5cd2007 	strb	r2, [sp, #7]
33e01b54:	e5dd3007 	ldrb	r3, [sp, #7]
33e01b58:	e3530080 	cmp	r3, #128	; 0x80
33e01b5c:	93e00000 	mvnls	r0, #0	; 0x0
33e01b60:	9a000034 	bls	33e01c38 <copy_uboot_to_ram+0x134>
33e01b64:	e3a045cf 	mov	r4, #868220928	; 0x33c00000
33e01b68:	e1a08000 	mov	r8, r0
33e01b6c:	e1a06001 	mov	r6, r1
33e01b70:	e2844602 	add	r4, r4, #2097152	; 0x200000
33e01b74:	e1a07000 	mov	r7, r0
33e01b78:	e1a0a000 	mov	sl, r0
33e01b7c:	e3a0b030 	mov	fp, #48	; 0x30
33e01b80:	e1a09001 	mov	r9, r1
33e01b84:	e318003f 	tst	r8, #63	; 0x3f
33e01b88:	10885007 	addne	r5, r8, r7
33e01b8c:	00885007 	addeq	r5, r8, r7
33e01b90:	0a000021 	beq	33e01c1c <copy_uboot_to_ram+0x118>
33e01b94:	e5963004 	ldr	r3, [r6, #4]
33e01b98:	e1a01825 	lsr	r1, r5, #16
33e01b9c:	e1a02425 	lsr	r2, r5, #8
33e01ba0:	e3c33002 	bic	r3, r3, #2	; 0x2
33e01ba4:	e20220ff 	and	r2, r2, #255	; 0xff
33e01ba8:	e20110ff 	and	r1, r1, #255	; 0xff
33e01bac:	e20500ff 	and	r0, r5, #255	; 0xff
33e01bb0:	e5863004 	str	r3, [r6, #4]
33e01bb4:	e586a008 	str	sl, [r6, #8]
33e01bb8:	e586a00c 	str	sl, [r6, #12]
33e01bbc:	e586a00c 	str	sl, [r6, #12]
33e01bc0:	e586000c 	str	r0, [r6, #12]
33e01bc4:	e586200c 	str	r2, [r6, #12]
33e01bc8:	e586100c 	str	r1, [r6, #12]
33e01bcc:	e586b008 	str	fp, [r6, #8]
33e01bd0:	e5963028 	ldr	r3, [r6, #40]
33e01bd4:	e3130001 	tst	r3, #1	; 0x1
33e01bd8:	0afffffc 	beq	33e01bd0 <copy_uboot_to_ram+0xcc>
33e01bdc:	e3a02000 	mov	r2, #0	; 0x0
33e01be0:	e5d63010 	ldrb	r3, [r6, #16]
33e01be4:	e7c43002 	strb	r3, [r4, r2]
33e01be8:	e2822001 	add	r2, r2, #1	; 0x1
33e01bec:	e3520b02 	cmp	r2, #2048	; 0x800
33e01bf0:	1afffffa 	bne	33e01be0 <copy_uboot_to_ram+0xdc>
33e01bf4:	e5993004 	ldr	r3, [r9, #4]
33e01bf8:	e2888001 	add	r8, r8, #1	; 0x1
33e01bfc:	e3833002 	orr	r3, r3, #2	; 0x2
33e01c00:	e3580c01 	cmp	r8, #256	; 0x100
33e01c04:	e5893004 	str	r3, [r9, #4]
33e01c08:	0a000009 	beq	33e01c34 <copy_uboot_to_ram+0x130>
33e01c0c:	e2844b02 	add	r4, r4, #2048	; 0x800
33e01c10:	eaffffdb 	b	33e01b84 <copy_uboot_to_ram+0x80>
33e01c14:	e2877040 	add	r7, r7, #64	; 0x40
33e01c18:	e1a05003 	mov	r5, r3
33e01c1c:	e1a00005 	mov	r0, r5
33e01c20:	ebffff87 	bl	33e01a44 <nand_isbad>
33e01c24:	e3500000 	cmp	r0, #0	; 0x0
33e01c28:	e2853040 	add	r3, r5, #64	; 0x40
33e01c2c:	1afffff8 	bne	33e01c14 <copy_uboot_to_ram+0x110>
33e01c30:	eaffffd7 	b	33e01b94 <copy_uboot_to_ram+0x90>
33e01c34:	e3a00000 	mov	r0, #0	; 0x0
33e01c38:	e28dd00c 	add	sp, sp, #12	; 0xc
33e01c3c:	e8bd4ff0 	pop	{r4, r5, r6, r7, r8, r9, sl, fp, lr}
33e01c40:	e12fff1e 	bx	lr

33e01c44 <copy_kernel_toram>:
33e01c44:	e3a0120b 	mov	r1, #-1342177280	; 0xb0000000
33e01c48:	e281160e 	add	r1, r1, #14680064	; 0xe00000
33e01c4c:	e5913004 	ldr	r3, [r1, #4]
33e01c50:	e3833001 	orr	r3, r3, #1	; 0x1
33e01c54:	e5813004 	str	r3, [r1, #4]
33e01c58:	e92d4ff0 	push	{r4, r5, r6, r7, r8, r9, sl, fp, lr}
33e01c5c:	e5912004 	ldr	r2, [r1, #4]
33e01c60:	e3a00000 	mov	r0, #0	; 0x0
33e01c64:	e3c22002 	bic	r2, r2, #2	; 0x2
33e01c68:	e3a03090 	mov	r3, #144	; 0x90
33e01c6c:	e5812004 	str	r2, [r1, #4]
33e01c70:	e5813008 	str	r3, [r1, #8]
33e01c74:	e581000c 	str	r0, [r1, #12]
33e01c78:	e5d13010 	ldrb	r3, [r1, #16]
33e01c7c:	e24dd00c 	sub	sp, sp, #12	; 0xc
33e01c80:	e20330ff 	and	r3, r3, #255	; 0xff
33e01c84:	e5cd3007 	strb	r3, [sp, #7]
33e01c88:	e5d12010 	ldrb	r2, [r1, #16]
33e01c8c:	e20220ff 	and	r2, r2, #255	; 0xff
33e01c90:	e5cd2007 	strb	r2, [sp, #7]
33e01c94:	e5dd3007 	ldrb	r3, [sp, #7]
33e01c98:	e3530080 	cmp	r3, #128	; 0x80
33e01c9c:	93e00000 	mvnls	r0, #0	; 0x0
33e01ca0:	9a000034 	bls	33e01d78 <copy_kernel_toram+0x134>
33e01ca4:	e3a04203 	mov	r4, #805306368	; 0x30000000
33e01ca8:	e1a07000 	mov	r7, r0
33e01cac:	e1a06001 	mov	r6, r1
33e01cb0:	e2844902 	add	r4, r4, #32768	; 0x8000
33e01cb4:	e3a08b03 	mov	r8, #3072	; 0xc00
33e01cb8:	e1a0a000 	mov	sl, r0
33e01cbc:	e3a0b030 	mov	fp, #48	; 0x30
33e01cc0:	e1a09001 	mov	r9, r1
33e01cc4:	e318003f 	tst	r8, #63	; 0x3f
33e01cc8:	10875008 	addne	r5, r7, r8
33e01ccc:	00875008 	addeq	r5, r7, r8
33e01cd0:	0a000021 	beq	33e01d5c <copy_kernel_toram+0x118>
33e01cd4:	e5963004 	ldr	r3, [r6, #4]
33e01cd8:	e1a01825 	lsr	r1, r5, #16
33e01cdc:	e1a02425 	lsr	r2, r5, #8
33e01ce0:	e3c33002 	bic	r3, r3, #2	; 0x2
33e01ce4:	e20220ff 	and	r2, r2, #255	; 0xff
33e01ce8:	e20110ff 	and	r1, r1, #255	; 0xff
33e01cec:	e20500ff 	and	r0, r5, #255	; 0xff
33e01cf0:	e5863004 	str	r3, [r6, #4]
33e01cf4:	e586a008 	str	sl, [r6, #8]
33e01cf8:	e586a00c 	str	sl, [r6, #12]
33e01cfc:	e586a00c 	str	sl, [r6, #12]
33e01d00:	e586000c 	str	r0, [r6, #12]
33e01d04:	e586200c 	str	r2, [r6, #12]
33e01d08:	e586100c 	str	r1, [r6, #12]
33e01d0c:	e586b008 	str	fp, [r6, #8]
33e01d10:	e5963028 	ldr	r3, [r6, #40]
33e01d14:	e3130001 	tst	r3, #1	; 0x1
33e01d18:	0afffffc 	beq	33e01d10 <copy_kernel_toram+0xcc>
33e01d1c:	e3a02000 	mov	r2, #0	; 0x0
33e01d20:	e5d63010 	ldrb	r3, [r6, #16]
33e01d24:	e7c43002 	strb	r3, [r4, r2]
33e01d28:	e2822001 	add	r2, r2, #1	; 0x1
33e01d2c:	e3520b02 	cmp	r2, #2048	; 0x800
33e01d30:	1afffffa 	bne	33e01d20 <copy_kernel_toram+0xdc>
33e01d34:	e5993004 	ldr	r3, [r9, #4]
33e01d38:	e2888001 	add	r8, r8, #1	; 0x1
33e01d3c:	e3833002 	orr	r3, r3, #2	; 0x2
33e01d40:	e3580c16 	cmp	r8, #5632	; 0x1600
33e01d44:	e5893004 	str	r3, [r9, #4]
33e01d48:	0a000009 	beq	33e01d74 <copy_kernel_toram+0x130>
33e01d4c:	e2844b02 	add	r4, r4, #2048	; 0x800
33e01d50:	eaffffdb 	b	33e01cc4 <copy_kernel_toram+0x80>
33e01d54:	e2877040 	add	r7, r7, #64	; 0x40
33e01d58:	e1a05003 	mov	r5, r3
33e01d5c:	e1a00005 	mov	r0, r5
33e01d60:	ebffff37 	bl	33e01a44 <nand_isbad>
33e01d64:	e3500000 	cmp	r0, #0	; 0x0
33e01d68:	e2853040 	add	r3, r5, #64	; 0x40
33e01d6c:	1afffff8 	bne	33e01d54 <copy_kernel_toram+0x110>
33e01d70:	eaffffd7 	b	33e01cd4 <copy_kernel_toram+0x90>
33e01d74:	e3a00000 	mov	r0, #0	; 0x0
33e01d78:	e28dd00c 	add	sp, sp, #12	; 0xc
33e01d7c:	e8bd4ff0 	pop	{r4, r5, r6, r7, r8, r9, sl, fp, lr}
33e01d80:	e12fff1e 	bx	lr
	...

33e01d90 <strlen>:
33e01d90:	e3c01003 	bic	r1, r0, #3	; 0x3
33e01d94:	e4912004 	ldr	r2, [r1], #4
33e01d98:	e2103003 	ands	r3, r0, #3	; 0x3
33e01d9c:	e2630000 	rsb	r0, r3, #0	; 0x0
33e01da0:	0a000004 	beq	33e01db8 <Laligned>
33e01da4:	e38220ff 	orr	r2, r2, #255	; 0xff
33e01da8:	e2533001 	subs	r3, r3, #1	; 0x1
33e01dac:	c3822cff 	orrgt	r2, r2, #65280	; 0xff00
33e01db0:	e2533001 	subs	r3, r3, #1	; 0x1
33e01db4:	c38228ff 	orrgt	r2, r2, #16711680	; 0xff0000

33e01db8 <Laligned>:
33e01db8:	e31200ff 	tst	r2, #255	; 0xff
33e01dbc:	13120cff 	tstne	r2, #65280	; 0xff00
33e01dc0:	131208ff 	tstne	r2, #16711680	; 0xff0000
33e01dc4:	131204ff 	tstne	r2, #-16777216	; 0xff000000
33e01dc8:	12800004 	addne	r0, r0, #4	; 0x4
33e01dcc:	14912004 	ldrne	r2, [r1], #4
33e01dd0:	1afffff8 	bne	33e01db8 <Laligned>

33e01dd4 <Llastword>:
33e01dd4:	e31200ff 	tst	r2, #255	; 0xff
33e01dd8:	12800001 	addne	r0, r0, #1	; 0x1
33e01ddc:	13120cff 	tstne	r2, #65280	; 0xff00
33e01de0:	12800001 	addne	r0, r0, #1	; 0x1
33e01de4:	131208ff 	tstne	r2, #16711680	; 0xff0000
33e01de8:	12800001 	addne	r0, r0, #1	; 0x1
33e01dec:	e12fff1e 	bx	lr

33e01df0 <strncmp>:
33e01df0:	e3520003 	cmp	r2, #3	; 0x3
33e01df4:	e92d0030 	push	{r4, r5}
33e01df8:	e1a04002 	mov	r4, r2
33e01dfc:	e1a02000 	mov	r2, r0
33e01e00:	93a00000 	movls	r0, #0	; 0x0
33e01e04:	91a0c000 	movls	ip, r0
33e01e08:	9a000025 	bls	33e01ea4 <strncmp+0xb4>
33e01e0c:	e1a05124 	lsr	r5, r4, #2
33e01e10:	e5d20000 	ldrb	r0, [r2]
33e01e14:	e5d1c000 	ldrb	ip, [r1]
33e01e18:	e050300c 	subs	r3, r0, ip
33e01e1c:	13a03001 	movne	r3, #1	; 0x1
33e01e20:	e3500000 	cmp	r0, #0	; 0x0
33e01e24:	03833001 	orreq	r3, r3, #1	; 0x1
33e01e28:	e3530000 	cmp	r3, #0	; 0x0
33e01e2c:	1a000031 	bne	33e01ef8 <strncmp+0x108>
33e01e30:	e5d20001 	ldrb	r0, [r2, #1]
33e01e34:	e5d1c001 	ldrb	ip, [r1, #1]
33e01e38:	e050300c 	subs	r3, r0, ip
33e01e3c:	13a03001 	movne	r3, #1	; 0x1
33e01e40:	e3500000 	cmp	r0, #0	; 0x0
33e01e44:	03833001 	orreq	r3, r3, #1	; 0x1
33e01e48:	e3530000 	cmp	r3, #0	; 0x0
33e01e4c:	1a000029 	bne	33e01ef8 <strncmp+0x108>
33e01e50:	e5d20002 	ldrb	r0, [r2, #2]
33e01e54:	e5d1c002 	ldrb	ip, [r1, #2]
33e01e58:	e050300c 	subs	r3, r0, ip
33e01e5c:	13a03001 	movne	r3, #1	; 0x1
33e01e60:	e3500000 	cmp	r0, #0	; 0x0
33e01e64:	03833001 	orreq	r3, r3, #1	; 0x1
33e01e68:	e3530000 	cmp	r3, #0	; 0x0
33e01e6c:	1a000021 	bne	33e01ef8 <strncmp+0x108>
33e01e70:	e5d20003 	ldrb	r0, [r2, #3]
33e01e74:	e5d1c003 	ldrb	ip, [r1, #3]
33e01e78:	e050300c 	subs	r3, r0, ip
33e01e7c:	13a03001 	movne	r3, #1	; 0x1
33e01e80:	e3500000 	cmp	r0, #0	; 0x0
33e01e84:	03833001 	orreq	r3, r3, #1	; 0x1
33e01e88:	e3530000 	cmp	r3, #0	; 0x0
33e01e8c:	e2822004 	add	r2, r2, #4	; 0x4
33e01e90:	e2811004 	add	r1, r1, #4	; 0x4
33e01e94:	1a000017 	bne	33e01ef8 <strncmp+0x108>
33e01e98:	e2555001 	subs	r5, r5, #1	; 0x1
33e01e9c:	1affffdb 	bne	33e01e10 <strncmp+0x20>
33e01ea0:	e2044003 	and	r4, r4, #3	; 0x3
33e01ea4:	e3540000 	cmp	r4, #0	; 0x0
33e01ea8:	0a000012 	beq	33e01ef8 <strncmp+0x108>
33e01eac:	e5d20000 	ldrb	r0, [r2]
33e01eb0:	e5d1c000 	ldrb	ip, [r1]
33e01eb4:	e050300c 	subs	r3, r0, ip
33e01eb8:	13a03001 	movne	r3, #1	; 0x1
33e01ebc:	e3500000 	cmp	r0, #0	; 0x0
33e01ec0:	03833001 	orreq	r3, r3, #1	; 0x1
33e01ec4:	e3530000 	cmp	r3, #0	; 0x0
33e01ec8:	0a000008 	beq	33e01ef0 <strncmp+0x100>
33e01ecc:	ea000009 	b	33e01ef8 <strncmp+0x108>
33e01ed0:	e5f20001 	ldrb	r0, [r2, #1]!
33e01ed4:	e5f1c001 	ldrb	ip, [r1, #1]!
33e01ed8:	e050300c 	subs	r3, r0, ip
33e01edc:	13a03001 	movne	r3, #1	; 0x1
33e01ee0:	e3500000 	cmp	r0, #0	; 0x0
33e01ee4:	03833001 	orreq	r3, r3, #1	; 0x1
33e01ee8:	e3530000 	cmp	r3, #0	; 0x0
33e01eec:	1a000001 	bne	33e01ef8 <strncmp+0x108>
33e01ef0:	e2544001 	subs	r4, r4, #1	; 0x1
33e01ef4:	1afffff5 	bne	33e01ed0 <strncmp+0xe0>
33e01ef8:	e06c0000 	rsb	r0, ip, r0
33e01efc:	e8bd0030 	pop	{r4, r5}
33e01f00:	e12fff1e 	bx	lr
	...

33e01f10 <memset>:
33e01f10:	e1a03000 	mov	r3, r0
33e01f14:	e3520008 	cmp	r2, #8	; 0x8
33e01f18:	3a000014 	bcc	33e01f70 <memset+0x60>
33e01f1c:	e3130003 	tst	r3, #3	; 0x3
33e01f20:	14c31001 	strbne	r1, [r3], #1
33e01f24:	12422001 	subne	r2, r2, #1	; 0x1
33e01f28:	1afffffb 	bne	33e01f1c <memset+0xc>
33e01f2c:	e20110ff 	and	r1, r1, #255	; 0xff
33e01f30:	e1811401 	orr	r1, r1, r1, lsl #8
33e01f34:	e1811801 	orr	r1, r1, r1, lsl #16
33e01f38:	e2522008 	subs	r2, r2, #8	; 0x8
33e01f3c:	24831004 	strcs	r1, [r3], #4
33e01f40:	24831004 	strcs	r1, [r3], #4
33e01f44:	22522008 	subscs	r2, r2, #8	; 0x8
33e01f48:	24831004 	strcs	r1, [r3], #4
33e01f4c:	24831004 	strcs	r1, [r3], #4
33e01f50:	22522008 	subscs	r2, r2, #8	; 0x8
33e01f54:	24831004 	strcs	r1, [r3], #4
33e01f58:	24831004 	strcs	r1, [r3], #4
33e01f5c:	22522008 	subscs	r2, r2, #8	; 0x8
33e01f60:	24831004 	strcs	r1, [r3], #4
33e01f64:	24831004 	strcs	r1, [r3], #4
33e01f68:	2afffff2 	bcs	33e01f38 <memset+0x28>
33e01f6c:	e2022007 	and	r2, r2, #7	; 0x7
33e01f70:	e2522001 	subs	r2, r2, #1	; 0x1
33e01f74:	24c31001 	strbcs	r1, [r3], #1
33e01f78:	22522001 	subscs	r2, r2, #1	; 0x1
33e01f7c:	24c31001 	strbcs	r1, [r3], #1
33e01f80:	22522001 	subscs	r2, r2, #1	; 0x1
33e01f84:	24c31001 	strbcs	r1, [r3], #1
33e01f88:	22522001 	subscs	r2, r2, #1	; 0x1
33e01f8c:	24c31001 	strbcs	r1, [r3], #1
33e01f90:	2afffff6 	bcs	33e01f70 <memset+0x60>
33e01f94:	e12fff1e 	bx	lr
33e01f98:	e1a00000 	nop			(mov r0,r0)
33e01f9c:	e1a00000 	nop			(mov r0,r0)

33e01fa0 <memcpy>:
33e01fa0:	e92d4011 	push	{r0, r4, lr}
33e01fa4:	e2522004 	subs	r2, r2, #4	; 0x4
33e01fa8:	ba000021 	blt	33e02034 <memcpy+0x94>
33e01fac:	e210c003 	ands	ip, r0, #3	; 0x3
33e01fb0:	1a000027 	bne	33e02054 <memcpy+0xb4>
33e01fb4:	e211c003 	ands	ip, r1, #3	; 0x3
33e01fb8:	1a000031 	bne	33e02084 <memcpy+0xe4>
33e01fbc:	e252201c 	subs	r2, r2, #28	; 0x1c
33e01fc0:	e92d01e0 	push	{r5, r6, r7, r8}
33e01fc4:	ba000003 	blt	33e01fd8 <memcpy+0x38>
33e01fc8:	e8b151f8 	ldm	r1!, {r3, r4, r5, r6, r7, r8, ip, lr}
33e01fcc:	e2522020 	subs	r2, r2, #32	; 0x20
33e01fd0:	e8a051f8 	stmia	r0!, {r3, r4, r5, r6, r7, r8, ip, lr}
33e01fd4:	aafffffb 	bge	33e01fc8 <memcpy+0x28>
33e01fd8:	e212c01c 	ands	ip, r2, #28	; 0x1c
33e01fdc:	e26cc020 	rsb	ip, ip, #32	; 0x20
33e01fe0:	108ff00c 	addne	pc, pc, ip
33e01fe4:	ea000011 	b	33e02030 <memcpy+0x90>
33e01fe8:	e1a00000 	nop			(mov r0,r0)
33e01fec:	e4913004 	ldr	r3, [r1], #4
33e01ff0:	e4914004 	ldr	r4, [r1], #4
33e01ff4:	e4915004 	ldr	r5, [r1], #4
33e01ff8:	e4916004 	ldr	r6, [r1], #4
33e01ffc:	e4917004 	ldr	r7, [r1], #4
33e02000:	e4918004 	ldr	r8, [r1], #4
33e02004:	e491e004 	ldr	lr, [r1], #4
33e02008:	e08ff00c 	add	pc, pc, ip
33e0200c:	e1a00000 	nop			(mov r0,r0)
33e02010:	e1a00000 	nop			(mov r0,r0)
33e02014:	e4803004 	str	r3, [r0], #4
33e02018:	e4804004 	str	r4, [r0], #4
33e0201c:	e4805004 	str	r5, [r0], #4
33e02020:	e4806004 	str	r6, [r0], #4
33e02024:	e4807004 	str	r7, [r0], #4
33e02028:	e4808004 	str	r8, [r0], #4
33e0202c:	e480e004 	str	lr, [r0], #4
33e02030:	e8bd01e0 	pop	{r5, r6, r7, r8}
33e02034:	e1b02f82 	lsls	r2, r2, #31
33e02038:	14d13001 	ldrbne	r3, [r1], #1
33e0203c:	24d14001 	ldrbcs	r4, [r1], #1
33e02040:	25d1c000 	ldrbcs	ip, [r1]
33e02044:	14c03001 	strbne	r3, [r0], #1
33e02048:	24c04001 	strbcs	r4, [r0], #1
33e0204c:	25c0c000 	strbcs	ip, [r0]
33e02050:	e8bd8011 	pop	{r0, r4, pc}
33e02054:	e26cc004 	rsb	ip, ip, #4	; 0x4
33e02058:	e35c0002 	cmp	ip, #2	; 0x2
33e0205c:	c4d13001 	ldrbgt	r3, [r1], #1
33e02060:	a4d14001 	ldrbge	r4, [r1], #1
33e02064:	e4d1e001 	ldrb	lr, [r1], #1
33e02068:	c4c03001 	strbgt	r3, [r0], #1
33e0206c:	a4c04001 	strbge	r4, [r0], #1
33e02070:	e052200c 	subs	r2, r2, ip
33e02074:	e4c0e001 	strb	lr, [r0], #1
33e02078:	baffffed 	blt	33e02034 <memcpy+0x94>
33e0207c:	e211c003 	ands	ip, r1, #3	; 0x3
33e02080:	0affffcd 	beq	33e01fbc <memcpy+0x1c>
33e02084:	e3c11003 	bic	r1, r1, #3	; 0x3
33e02088:	e35c0002 	cmp	ip, #2	; 0x2
33e0208c:	e491e004 	ldr	lr, [r1], #4
33e02090:	0a000023 	beq	33e02124 <memcpy+0x184>
33e02094:	ca000045 	bgt	33e021b0 <memcpy+0x210>
33e02098:	e252201c 	subs	r2, r2, #28	; 0x1c
33e0209c:	ba000016 	blt	33e020fc <memcpy+0x15c>
33e020a0:	e92d03e0 	push	{r5, r6, r7, r8, r9}
33e020a4:	e8b100f0 	ldm	r1!, {r4, r5, r6, r7}
33e020a8:	e1a0342e 	lsr	r3, lr, #8
33e020ac:	e2522020 	subs	r2, r2, #32	; 0x20
33e020b0:	e8b15300 	ldm	r1!, {r8, r9, ip, lr}
33e020b4:	e1833c04 	orr	r3, r3, r4, lsl #24
33e020b8:	e1a04424 	lsr	r4, r4, #8
33e020bc:	e1844c05 	orr	r4, r4, r5, lsl #24
33e020c0:	e1a05425 	lsr	r5, r5, #8
33e020c4:	e1855c06 	orr	r5, r5, r6, lsl #24
33e020c8:	e1a06426 	lsr	r6, r6, #8
33e020cc:	e1866c07 	orr	r6, r6, r7, lsl #24
33e020d0:	e1a07427 	lsr	r7, r7, #8
33e020d4:	e1877c08 	orr	r7, r7, r8, lsl #24
33e020d8:	e1a08428 	lsr	r8, r8, #8
33e020dc:	e1888c09 	orr	r8, r8, r9, lsl #24
33e020e0:	e1a09429 	lsr	r9, r9, #8
33e020e4:	e1899c0c 	orr	r9, r9, ip, lsl #24
33e020e8:	e1a0c42c 	lsr	ip, ip, #8
33e020ec:	e18ccc0e 	orr	ip, ip, lr, lsl #24
33e020f0:	e8a013f8 	stmia	r0!, {r3, r4, r5, r6, r7, r8, r9, ip}
33e020f4:	aaffffea 	bge	33e020a4 <memcpy+0x104>
33e020f8:	e8bd03e0 	pop	{r5, r6, r7, r8, r9}
33e020fc:	e212c01c 	ands	ip, r2, #28	; 0x1c
33e02100:	0a000005 	beq	33e0211c <memcpy+0x17c>
33e02104:	e1a0342e 	lsr	r3, lr, #8
33e02108:	e491e004 	ldr	lr, [r1], #4
33e0210c:	e25cc004 	subs	ip, ip, #4	; 0x4
33e02110:	e1833c0e 	orr	r3, r3, lr, lsl #24
33e02114:	e4803004 	str	r3, [r0], #4
33e02118:	cafffff9 	bgt	33e02104 <memcpy+0x164>
33e0211c:	e2411003 	sub	r1, r1, #3	; 0x3
33e02120:	eaffffc3 	b	33e02034 <memcpy+0x94>
33e02124:	e252201c 	subs	r2, r2, #28	; 0x1c
33e02128:	ba000016 	blt	33e02188 <memcpy+0x1e8>
33e0212c:	e92d03e0 	push	{r5, r6, r7, r8, r9}
33e02130:	e8b100f0 	ldm	r1!, {r4, r5, r6, r7}
33e02134:	e1a0382e 	lsr	r3, lr, #16
33e02138:	e2522020 	subs	r2, r2, #32	; 0x20
33e0213c:	e8b15300 	ldm	r1!, {r8, r9, ip, lr}
33e02140:	e1833804 	orr	r3, r3, r4, lsl #16
33e02144:	e1a04824 	lsr	r4, r4, #16
33e02148:	e1844805 	orr	r4, r4, r5, lsl #16
33e0214c:	e1a05825 	lsr	r5, r5, #16
33e02150:	e1855806 	orr	r5, r5, r6, lsl #16
33e02154:	e1a06826 	lsr	r6, r6, #16
33e02158:	e1866807 	orr	r6, r6, r7, lsl #16
33e0215c:	e1a07827 	lsr	r7, r7, #16
33e02160:	e1877808 	orr	r7, r7, r8, lsl #16
33e02164:	e1a08828 	lsr	r8, r8, #16
33e02168:	e1888809 	orr	r8, r8, r9, lsl #16
33e0216c:	e1a09829 	lsr	r9, r9, #16
33e02170:	e189980c 	orr	r9, r9, ip, lsl #16
33e02174:	e1a0c82c 	lsr	ip, ip, #16
33e02178:	e18cc80e 	orr	ip, ip, lr, lsl #16
33e0217c:	e8a013f8 	stmia	r0!, {r3, r4, r5, r6, r7, r8, r9, ip}
33e02180:	aaffffea 	bge	33e02130 <memcpy+0x190>
33e02184:	e8bd03e0 	pop	{r5, r6, r7, r8, r9}
33e02188:	e212c01c 	ands	ip, r2, #28	; 0x1c
33e0218c:	0a000005 	beq	33e021a8 <memcpy+0x208>
33e02190:	e1a0382e 	lsr	r3, lr, #16
33e02194:	e491e004 	ldr	lr, [r1], #4
33e02198:	e25cc004 	subs	ip, ip, #4	; 0x4
33e0219c:	e183380e 	orr	r3, r3, lr, lsl #16
33e021a0:	e4803004 	str	r3, [r0], #4
33e021a4:	cafffff9 	bgt	33e02190 <memcpy+0x1f0>
33e021a8:	e2411002 	sub	r1, r1, #2	; 0x2
33e021ac:	eaffffa0 	b	33e02034 <memcpy+0x94>
33e021b0:	e252201c 	subs	r2, r2, #28	; 0x1c
33e021b4:	ba000016 	blt	33e02214 <memcpy+0x274>
33e021b8:	e92d03e0 	push	{r5, r6, r7, r8, r9}
33e021bc:	e8b100f0 	ldm	r1!, {r4, r5, r6, r7}
33e021c0:	e1a03c2e 	lsr	r3, lr, #24
33e021c4:	e2522020 	subs	r2, r2, #32	; 0x20
33e021c8:	e8b15300 	ldm	r1!, {r8, r9, ip, lr}
33e021cc:	e1833404 	orr	r3, r3, r4, lsl #8
33e021d0:	e1a04c24 	lsr	r4, r4, #24
33e021d4:	e1844405 	orr	r4, r4, r5, lsl #8
33e021d8:	e1a05c25 	lsr	r5, r5, #24
33e021dc:	e1855406 	orr	r5, r5, r6, lsl #8
33e021e0:	e1a06c26 	lsr	r6, r6, #24
33e021e4:	e1866407 	orr	r6, r6, r7, lsl #8
33e021e8:	e1a07c27 	lsr	r7, r7, #24
33e021ec:	e1877408 	orr	r7, r7, r8, lsl #8
33e021f0:	e1a08c28 	lsr	r8, r8, #24
33e021f4:	e1888409 	orr	r8, r8, r9, lsl #8
33e021f8:	e1a09c29 	lsr	r9, r9, #24
33e021fc:	e189940c 	orr	r9, r9, ip, lsl #8
33e02200:	e1a0cc2c 	lsr	ip, ip, #24
33e02204:	e18cc40e 	orr	ip, ip, lr, lsl #8
33e02208:	e8a013f8 	stmia	r0!, {r3, r4, r5, r6, r7, r8, r9, ip}
33e0220c:	aaffffea 	bge	33e021bc <memcpy+0x21c>
33e02210:	e8bd03e0 	pop	{r5, r6, r7, r8, r9}
33e02214:	e212c01c 	ands	ip, r2, #28	; 0x1c
33e02218:	0a000005 	beq	33e02234 <memcpy+0x294>
33e0221c:	e1a03c2e 	lsr	r3, lr, #24
33e02220:	e491e004 	ldr	lr, [r1], #4
33e02224:	e25cc004 	subs	ip, ip, #4	; 0x4
33e02228:	e183340e 	orr	r3, r3, lr, lsl #8
33e0222c:	e4803004 	str	r3, [r0], #4
33e02230:	cafffff9 	bgt	33e0221c <memcpy+0x27c>
33e02234:	e2411001 	sub	r1, r1, #1	; 0x1
33e02238:	eaffff7d 	b	33e02034 <memcpy+0x94>
33e0223c:	e1a00000 	nop			(mov r0,r0)

33e02240 <__aeabi_uidiv>:
33e02240:	e2512001 	subs	r2, r1, #1	; 0x1
33e02244:	012fff1e 	bxeq	lr
33e02248:	3a000036 	bcc	33e02328 <__aeabi_uidiv+0xe8>
33e0224c:	e1500001 	cmp	r0, r1
33e02250:	9a000022 	bls	33e022e0 <__aeabi_uidiv+0xa0>
33e02254:	e1110002 	tst	r1, r2
33e02258:	0a000023 	beq	33e022ec <__aeabi_uidiv+0xac>
33e0225c:	e311020e 	tst	r1, #-536870912	; 0xe0000000
33e02260:	01a01181 	lsleq	r1, r1, #3
33e02264:	03a03008 	moveq	r3, #8	; 0x8
33e02268:	13a03001 	movne	r3, #1	; 0x1
33e0226c:	e3510201 	cmp	r1, #268435456	; 0x10000000
33e02270:	31510000 	cmpcc	r1, r0
33e02274:	31a01201 	lslcc	r1, r1, #4
33e02278:	31a03203 	lslcc	r3, r3, #4
33e0227c:	3afffffa 	bcc	33e0226c <__aeabi_uidiv+0x2c>
33e02280:	e3510102 	cmp	r1, #-2147483648	; 0x80000000
33e02284:	31510000 	cmpcc	r1, r0
33e02288:	31a01081 	lslcc	r1, r1, #1
33e0228c:	31a03083 	lslcc	r3, r3, #1
33e02290:	3afffffa 	bcc	33e02280 <__aeabi_uidiv+0x40>
33e02294:	e3a02000 	mov	r2, #0	; 0x0
33e02298:	e1500001 	cmp	r0, r1
33e0229c:	20400001 	subcs	r0, r0, r1
33e022a0:	21822003 	orrcs	r2, r2, r3
33e022a4:	e15000a1 	cmp	r0, r1, lsr #1
33e022a8:	204000a1 	subcs	r0, r0, r1, lsr #1
33e022ac:	218220a3 	orrcs	r2, r2, r3, lsr #1
33e022b0:	e1500121 	cmp	r0, r1, lsr #2
33e022b4:	20400121 	subcs	r0, r0, r1, lsr #2
33e022b8:	21822123 	orrcs	r2, r2, r3, lsr #2
33e022bc:	e15001a1 	cmp	r0, r1, lsr #3
33e022c0:	204001a1 	subcs	r0, r0, r1, lsr #3
33e022c4:	218221a3 	orrcs	r2, r2, r3, lsr #3
33e022c8:	e3500000 	cmp	r0, #0	; 0x0
33e022cc:	11b03223 	lsrsne	r3, r3, #4
33e022d0:	11a01221 	lsrne	r1, r1, #4
33e022d4:	1affffef 	bne	33e02298 <__aeabi_uidiv+0x58>
33e022d8:	e1a00002 	mov	r0, r2
33e022dc:	e12fff1e 	bx	lr
33e022e0:	03a00001 	moveq	r0, #1	; 0x1
33e022e4:	13a00000 	movne	r0, #0	; 0x0
33e022e8:	e12fff1e 	bx	lr
33e022ec:	e3510801 	cmp	r1, #65536	; 0x10000
33e022f0:	21a01821 	lsrcs	r1, r1, #16
33e022f4:	23a02010 	movcs	r2, #16	; 0x10
33e022f8:	33a02000 	movcc	r2, #0	; 0x0
33e022fc:	e3510c01 	cmp	r1, #256	; 0x100
33e02300:	21a01421 	lsrcs	r1, r1, #8
33e02304:	22822008 	addcs	r2, r2, #8	; 0x8
33e02308:	e3510010 	cmp	r1, #16	; 0x10
33e0230c:	21a01221 	lsrcs	r1, r1, #4
33e02310:	22822004 	addcs	r2, r2, #4	; 0x4
33e02314:	e3510004 	cmp	r1, #4	; 0x4
33e02318:	82822003 	addhi	r2, r2, #3	; 0x3
33e0231c:	908220a1 	addls	r2, r2, r1, lsr #1
33e02320:	e1a00230 	lsr	r0, r0, r2
33e02324:	e12fff1e 	bx	lr
33e02328:	e3500000 	cmp	r0, #0	; 0x0
33e0232c:	13e00000 	mvnne	r0, #0	; 0x0
33e02330:	ea000007 	b	33e02354 <__aeabi_idiv0>

33e02334 <__aeabi_uidivmod>:
33e02334:	e3510000 	cmp	r1, #0	; 0x0
33e02338:	0afffffa 	beq	33e02328 <__aeabi_uidiv+0xe8>
33e0233c:	e92d4003 	push	{r0, r1, lr}
33e02340:	ebffffbe 	bl	33e02240 <__aeabi_uidiv>
33e02344:	e8bd4006 	pop	{r1, r2, lr}
33e02348:	e0030092 	mul	r3, r2, r0
33e0234c:	e0411003 	sub	r1, r1, r3
33e02350:	e12fff1e 	bx	lr

33e02354 <__aeabi_idiv0>:
33e02354:	e92d4002 	push	{r1, lr}
33e02358:	e3a00008 	mov	r0, #8	; 0x8
33e0235c:	ebfffc9f 	bl	33e015e0 <raise>
33e02360:	e8bd4002 	pop	{r1, lr}
33e02364:	e12fff1e 	bx	lr
Disassembly of section .rodata:

33e02368 <_ctype>:
33e02368:	08080808 	.word	0x08080808
33e0236c:	08080808 	.word	0x08080808
33e02370:	28282808 	.word	0x28282808
33e02374:	08082828 	.word	0x08082828
33e02378:	08080808 	.word	0x08080808
33e0237c:	08080808 	.word	0x08080808
33e02380:	08080808 	.word	0x08080808
33e02384:	08080808 	.word	0x08080808
33e02388:	101010a0 	.word	0x101010a0
33e0238c:	10101010 	.word	0x10101010
33e02390:	10101010 	.word	0x10101010
33e02394:	10101010 	.word	0x10101010
33e02398:	04040404 	.word	0x04040404
33e0239c:	04040404 	.word	0x04040404
33e023a0:	10100404 	.word	0x10100404
33e023a4:	10101010 	.word	0x10101010
33e023a8:	41414110 	.word	0x41414110
33e023ac:	01414141 	.word	0x01414141
33e023b0:	01010101 	.word	0x01010101
33e023b4:	01010101 	.word	0x01010101
33e023b8:	01010101 	.word	0x01010101
33e023bc:	01010101 	.word	0x01010101
33e023c0:	10010101 	.word	0x10010101
33e023c4:	10101010 	.word	0x10101010
33e023c8:	42424210 	.word	0x42424210
33e023cc:	02424242 	.word	0x02424242
33e023d0:	02020202 	.word	0x02020202
33e023d4:	02020202 	.word	0x02020202
33e023d8:	02020202 	.word	0x02020202
33e023dc:	02020202 	.word	0x02020202
33e023e0:	10020202 	.word	0x10020202
33e023e4:	08101010 	.word	0x08101010
	...
33e02408:	101010a0 	.word	0x101010a0
33e0240c:	10101010 	.word	0x10101010
33e02410:	10101010 	.word	0x10101010
33e02414:	10101010 	.word	0x10101010
33e02418:	10101010 	.word	0x10101010
33e0241c:	10101010 	.word	0x10101010
33e02420:	10101010 	.word	0x10101010
33e02424:	10101010 	.word	0x10101010
33e02428:	01010101 	.word	0x01010101
33e0242c:	01010101 	.word	0x01010101
33e02430:	01010101 	.word	0x01010101
33e02434:	01010101 	.word	0x01010101
33e02438:	01010101 	.word	0x01010101
33e0243c:	10010101 	.word	0x10010101
33e02440:	01010101 	.word	0x01010101
33e02444:	02010101 	.word	0x02010101
33e02448:	02020202 	.word	0x02020202
33e0244c:	02020202 	.word	0x02020202
33e02450:	02020202 	.word	0x02020202
33e02454:	02020202 	.word	0x02020202
33e02458:	02020202 	.word	0x02020202
33e0245c:	10020202 	.word	0x10020202
33e02460:	02020202 	.word	0x02020202
33e02464:	02020202 	.word	0x02020202
Disassembly of section .rodata.str1.4:

33e02468 <.rodata.str1.4>:
33e02468:	746f6f72 	strbtvc	r6, [pc], #3954	; 33e02470 <_ctype+0x108>
33e0246c:	65642f3d 	strbvs	r2, [r4, #-3901]!
33e02470:	746d2f76 	strbtvc	r2, [sp], #-3958
33e02474:	6f6c6264 	svcvs	0x006c6264
33e02478:	20346b63 	eorscs	r6, r4, r3, ror #22
33e0247c:	746f6f72 	strbtvc	r6, [pc], #3954	; 33e02484 <_ctype+0x11c>
33e02480:	79747366 	ldmdbvc	r4!, {r1, r2, r5, r6, r8, r9, ip, sp, lr}^
33e02484:	793d6570 	ldmdbvc	sp!, {r4, r5, r6, r8, sl, sp, lr}
33e02488:	73666661 	cmnvc	r6, #101711872	; 0x6100000
33e0248c:	6e692032 	mcrvs	0, 3, r2, cr9, cr2, {1}
33e02490:	2f3d7469 	svccs	0x003d7469
33e02494:	756e696c 	strbvc	r6, [lr, #-2412]!
33e02498:	20637278 	rsbcs	r7, r3, r8, ror r2
33e0249c:	736e6f63 	cmnvc	lr, #396	; 0x18c
33e024a0:	3d656c6f 	stclcc	12, cr6, [r5, #-444]!
33e024a4:	53797474 	cmnpl	r9, #1946157056	; 0x74000000
33e024a8:	2c304341 	ldccs	3, cr4, [r0], #-260
33e024ac:	32353131 	eorscc	r3, r5, #1073741836	; 0x4000000c
33e024b0:	00003030 	andeq	r3, r0, r0, lsr r0
33e024b4:	7620090a 	.word	0x7620090a
33e024b8:	74206425 	strtvc	r6, [r0], #-1061
33e024bc:	656b206f 	strbvs	r2, [fp, #-111]!
33e024c0:	6c656e72 	stclvs	14, cr6, [r5], #-456
33e024c4:	206f6720 	.word	0x206f6720
33e024c8:	67206f67 	strvs	r6, [r0, -r7, ror #30]!
33e024cc:	2e2e206f 	cdpcs	0, 2, cr2, cr14, cr15, {3}
33e024d0:	2e2e2e2e 	cdpcs	14, 2, cr2, cr14, cr14, {1}
33e024d4:	0000000a 	andeq	r0, r0, sl
33e024d8:	7320090a 	.word	0x7320090a
33e024dc:	25767035 	ldrbcs	r7, [r6, #-53]!
33e024e0:	202d2064 	eorcs	r2, sp, r4, rrx
33e024e4:	73657250 	cmnvc	r5, #5	; 0x5
33e024e8:	70732073 	.word	0x70732073
33e024ec:	73656361 	cmnvc	r5, #-2080374783	; 0x84000001
33e024f0:	206e6920 	rsbcs	r6, lr, r0, lsr #18
33e024f4:	6d6d6f63 	.word	0x6d6d6f63
33e024f8:	20646e61 	rsbcs	r6, r4, r1, ror #28
33e024fc:	656e696c 	strbvs	r6, [lr, #-2412]!
33e02500:	00000a0d 	andeq	r0, r0, sp, lsl #20
33e02504:	33323130 	.word	0x33323130
33e02508:	37363534 	undefined
33e0250c:	62613938 	rsbvs	r3, r1, #917504	; 0xe0000
33e02510:	66656463 	.word	0x66656463
33e02514:	6a696867 	bvs	3585c6b8 <stackedState+0x1a59cdc>
33e02518:	6e6d6c6b 	.word	0x6e6d6c6b
33e0251c:	7271706f 	rsbsvc	r7, r1, #111	; 0x6f
33e02520:	76757473 	.word	0x76757473
33e02524:	7a797877 	bvc	35c60708 <stackedState+0x1e5dd2c>
33e02528:	00000000 	andeq	r0, r0, r0
33e0252c:	33323130 	.word	0x33323130
33e02530:	37363534 	undefined
33e02534:	42413938 	submi	r3, r1, #917504	; 0xe0000
33e02538:	46454443 	strbmi	r4, [r5], -r3, asr #8
33e0253c:	4a494847 	bmi	35054660 <stackedState+0x1251c84>
33e02540:	4e4d4c4b 	cdpmi	12, 4, cr4, cr13, cr11, {2}
33e02544:	5251504f 	subspl	r5, r1, #79	; 0x4f
33e02548:	56555453 	undefined
33e0254c:	5a595857 	.word	0x5a595857
33e02550:	00000000 	andeq	r0, r0, r0
33e02554:	4c554e3c 	mrrcmi	14, 3, r4, r5, cr12
33e02558:	00003e4c 	.word	0x00003e4c
33e0255c:	746f6f62 	strbtvc	r6, [pc], #3938	; 33e02564 <_ctype+0x1fc>
33e02560:	00000000 	andeq	r0, r0, r0
33e02564:	65736572 	.word	0x65736572
33e02568:	00000074 	andeq	r0, r0, r4, ror r0
33e0256c:	65736572 	ldrbvs	r6, [r3, #-1394]!
33e02570:	2e2e2074 	mcrcs	0, 1, r2, cr14, cr4, {3}
33e02574:	2e2e2e2e 	cdpcs	14, 2, cr2, cr14, cr14, {1}
33e02578:	00000a0d 	andeq	r0, r0, sp, lsl #20
33e0257c:	0000646d 	.word	0x0000646d
33e02580:	6572200a 	ldrbvs	r2, [r2, #-10]!
33e02584:	203d2067 	eorscs	r2, sp, r7, rrx
33e02588:	0a782325 	beq	35c0b224 <stackedState+0x1e08848>
33e0258c:	00000000 	andeq	r0, r0, r0
33e02590:	0000776d 	andeq	r7, r0, sp, ror #14
33e02594:	6572200a 	.word	0x6572200a
33e02598:	23253a67 	teqcs	r5, #421888	; 0x67000
33e0259c:	203d2078 	eorscs	r2, sp, r8, ror r0
33e025a0:	0a782325 	.word	0x0a782325
33e025a4:	00000000 	.word	0x00000000
33e025a8:	6e697270 	.word	0x6e697270
33e025ac:	00000074 	andeq	r0, r0, r4, ror r0
33e025b0:	74736574 	ldrbtvc	r6, [r3], #-1396
33e025b4:	00000a0d 	andeq	r0, r0, sp, lsl #20
33e025b8:	6d6d6f63 	stclvs	15, cr6, [sp, #-396]!
33e025bc:	20646e61 	rsbcs	r6, r4, r1, ror #28
33e025c0:	6f727265 	svcvs	0x00727265
33e025c4:	0a0d2172 	beq	3414ab94 <stackedState+0x3481b8>
33e025c8:	00000000 	andeq	r0, r0, r0
33e025cc:	70736e75 	rsbsvc	r6, r3, r5, ror lr
33e025d0:	20303132 	eorscs	r3, r0, r2, lsr r1
33e025d4:	00002023 	andeq	r2, r0, r3, lsr #32
Disassembly of section .bss:

33e025d8 <getc_errno>:
33e025d8:	00000000 	.word	0x00000000

33e025dc <printk_buf.2687>:
	...

33e029dc <stackedState>:
33e029dc:	00000000 	.word	0x00000000
Disassembly of section .comment:

00000000 <.comment>:
   0:	43434700 	movtmi	r4, #14080	; 0x3700
   4:	5328203a 	teqpl	r8, #58	; 0x3a
   8:	6372756f 	cmnvs	r2, #465567744	; 0x1bc00000
   c:	20797265 	rsbscs	r7, r9, r5, ror #4
  10:	202b2b47 	eorcs	r2, fp, r7, asr #22
  14:	6574694c 	ldrbvs	r6, [r4, #-2380]!
  18:	30303220 	eorscc	r3, r0, r0, lsr #4
  1c:	2d337138 	ldfcss	f7, [r3, #-224]!
  20:	20293237 	eorcs	r3, r9, r7, lsr r2
  24:	2e332e34 	mrccs	14, 1, r2, cr3, cr4, {1}
  28:	47000032 	smladxmi	r0, r2, r0, r0
  2c:	203a4343 	eorscs	r4, sl, r3, asr #6
  30:	756f5328 	strbvc	r5, [pc, #-808]!	; fffffd10 <stackedState+0xcc1fd334>
  34:	72656372 	rsbvc	r6, r5, #-939524095	; 0xc8000001
  38:	2b472079 	blcs	11c8224 <temp_val-0x32c37ddc>
  3c:	694c202b 	stmdbvs	ip, {r0, r1, r3, r5, sp}^
  40:	32206574 	eorcc	r6, r0, #486539264	; 0x1d000000
  44:	71383030 	teqvc	r8, r0, lsr r0
  48:	32372d33 	eorscc	r2, r7, #3264	; 0xcc0
  4c:	2e342029 	cdpcs	0, 3, cr2, cr4, cr9, {1}
  50:	00322e33 	eorseq	r2, r2, r3, lsr lr
  54:	43434700 	movtmi	r4, #14080	; 0x3700
  58:	5328203a 	teqpl	r8, #58	; 0x3a
  5c:	6372756f 	cmnvs	r2, #465567744	; 0x1bc00000
  60:	20797265 	rsbscs	r7, r9, r5, ror #4
  64:	202b2b47 	eorcs	r2, fp, r7, asr #22
  68:	6574694c 	ldrbvs	r6, [r4, #-2380]!
  6c:	30303220 	eorscc	r3, r0, r0, lsr #4
  70:	2d337138 	ldfcss	f7, [r3, #-224]!
  74:	20293237 	eorcs	r3, r9, r7, lsr r2
  78:	2e332e34 	mrccs	14, 1, r2, cr3, cr4, {1}
  7c:	47000032 	smladxmi	r0, r2, r0, r0
  80:	203a4343 	eorscs	r4, sl, r3, asr #6
  84:	756f5328 	strbvc	r5, [pc, #-808]!	; fffffd64 <stackedState+0xcc1fd388>
  88:	72656372 	rsbvc	r6, r5, #-939524095	; 0xc8000001
  8c:	2b472079 	blcs	11c8278 <temp_val-0x32c37d88>
  90:	694c202b 	stmdbvs	ip, {r0, r1, r3, r5, sp}^
  94:	32206574 	eorcc	r6, r0, #486539264	; 0x1d000000
  98:	71383030 	teqvc	r8, r0, lsr r0
  9c:	32372d33 	eorscc	r2, r7, #3264	; 0xcc0
  a0:	2e342029 	cdpcs	0, 3, cr2, cr4, cr9, {1}
  a4:	00322e33 	eorseq	r2, r2, r3, lsr lr
  a8:	43434700 	movtmi	r4, #14080	; 0x3700
  ac:	5328203a 	teqpl	r8, #58	; 0x3a
  b0:	6372756f 	cmnvs	r2, #465567744	; 0x1bc00000
  b4:	20797265 	rsbscs	r7, r9, r5, ror #4
  b8:	202b2b47 	eorcs	r2, fp, r7, asr #22
  bc:	6574694c 	ldrbvs	r6, [r4, #-2380]!
  c0:	30303220 	eorscc	r3, r0, r0, lsr #4
  c4:	2d337138 	ldfcss	f7, [r3, #-224]!
  c8:	20293237 	eorcs	r3, r9, r7, lsr r2
  cc:	2e332e34 	mrccs	14, 1, r2, cr3, cr4, {1}
  d0:	Address 0x000000d0 is out of bounds.

Disassembly of section .ARM.attributes:

00000000 <.ARM.attributes>:
   0:	00002741 	andeq	r2, r0, r1, asr #14
   4:	61656100 	cmnvs	r5, r0, lsl #2
   8:	01006962 	tsteq	r0, r2, ror #18
   c:	0000001d 	andeq	r0, r0, sp, lsl r0
  10:	00543405 	subseq	r3, r4, r5, lsl #8
  14:	01080206 	tsteq	r8, r6, lsl #4
  18:	01140412 	tsteq	r4, r2, lsl r4
  1c:	03170115 	tsteq	r7, #1073741829	; 0x40000005
  20:	01190118 	tsteq	r9, r8, lsl r1
  24:	021e021a 	andseq	r0, lr, #-1610612735	; 0xa0000001
Disassembly of section .debug_frame:

00000000 <.debug_frame>:
   0:	0000000c 	.word	0x0000000c
   4:	ffffffff 	.word	0xffffffff
   8:	7c010001 	.word	0x7c010001
   c:	000d0c0e 	.word	0x000d0c0e
  10:	00000014 	.word	0x00000014
  14:	00000000 	.word	0x00000000
  18:	33e01df0 	.word	0x33e01df0
  1c:	00000114 	.word	0x00000114
  20:	85080e48 	.word	0x85080e48
  24:	00028401 	.word	0x00028401
  28:	0000000c 	.word	0x0000000c
  2c:	ffffffff 	.word	0xffffffff
  30:	7c010001 	.word	0x7c010001
  34:	000d0c0e 	.word	0x000d0c0e
  38:	0000000c 	.word	0x0000000c
  3c:	00000028 	.word	0x00000028
  40:	33e02240 	.word	0x33e02240
  44:	000000f4 	.word	0x000000f4
